L251 LINKER/LOCATER V4.66.93.0                                                          03/28/2026  21:02:40  PAGE 1


L251 LINKER/LOCATER V4.66.93.0, INVOKED BY:
F:\KEIL_V5\C251\BIN\L251.EXE .\OBJ_Out\control.obj, .\OBJ_Out\main.obj, .\OBJ_Out\LQ_ADC.obj, .\OBJ_Out\LQ_BDGPS.obj, .\
>> OBJ_Out\LQ_CCD.obj, .\OBJ_Out\LQ_EEPROM.obj, .\OBJ_Out\LQ_Encoder.obj, .\OBJ_Out\LQ_GPIO.obj, .\OBJ_Out\LQ_GPIO_LED.o
>> bj, .\OBJ_Out\LQ_HSPI.obj, .\OBJ_Out\LQ_I2C_VL53.obj, .\OBJ_Out\LQ_KEY.obj, .\OBJ_Out\LQ_LSM6DSR.obj, .\OBJ_Out\LQ_Mo
>> torServo.obj, .\OBJ_Out\LQ_OLED096.obj, .\OBJ_Out\LQ_SBUS.obj, .\OBJ_Out\LQ_Soft_I2C.obj, .\OBJ_Out\LQ_Soft_SPI.obj, 
>> .\OBJ_Out\LQ_TIMER.obj, .\OBJ_Out\LQ_UART.obj, .\OBJ_Out\LQ_WDT.obj, .\OBJ_Out\LQ_XINT.obj, .\OBJ_Out\AI8051U_ADC_Isr
>> .obj, .\OBJ_Out\AI8051U_DMA_Isr.obj, .\OBJ_Out\AI8051U_Exti_Isr.obj, .\OBJ_Out\AI8051U_GPIO_Isr.obj, .\OBJ_Out\AI8051
>> U_PWM_Isr.obj, .\OBJ_Out\AI8051U_SPI_Isr.obj, .\OBJ_Out\AI8051U_Timer_Isr.obj, .\OBJ_Out\AI8051U_UART_Isr.obj, .\OBJ_
>> Out\AI8051U_ADC.obj, .\OBJ_Out\AI8051U_Clock.obj, .\OBJ_Out\AI8051U_Delay.obj, .\OBJ_Out\AI8051U_DMA.obj, .\OBJ_Out\A
>> I8051U_EEPROM.obj, .\OBJ_Out\AI8051U_Exti.obj, .\OBJ_Out\AI8051U_GPIO.obj, .\OBJ_Out\AI8051U_NVIC.obj, .\OBJ_Out\AI80
>> 51U_PWM.obj, .\OBJ_Out\AI8051U_SPI.obj, .\OBJ_Out\AI8051U_Timer.obj, .\OBJ_Out\AI8051U_UART.obj, .\OBJ_Out\AI8051U_WD
>> T.obj TO .\OBJ_Out\LQ_STCAI8051_LIB PRINT (.\OBJ_Out\LQ_STCAI8051_LIB.map) CASE DISABLEWARNING (57, 16) REMOVEUNUSED 
>> CLASSES (EDATA (0X0-0X7FF), HDATA (0X0-0X7FF))


CPU MODE:     251 SOURCE MODE
INTR FRAME:   4 BYTES SAVED ON INTERRUPT
MEMORY MODEL: LARGE WITH DOUBLE PRECISION FLOATING POINT ARITHMETIC


INPUT MODULES INCLUDED:
  .\OBJ_Out\control.obj (control)
         COMMENT TYPE 0: C251 V5.60.0
  .\OBJ_Out\main.obj (main)
         COMMENT TYPE 0: C251 V5.60.0
  .\OBJ_Out\LQ_ADC.obj (LQ_ADC)
         COMMENT TYPE 0: C251 V5.60.0
  .\OBJ_Out\LQ_BDGPS.obj (LQ_BDGPS)
         COMMENT TYPE 0: C251 V5.60.0
  .\OBJ_Out\LQ_CCD.obj (LQ_CCD)
         COMMENT TYPE 0: C251 V5.60.0
  .\OBJ_Out\LQ_EEPROM.obj (LQ_EEPROM)
         COMMENT TYPE 0: C251 V5.60.0
  .\OBJ_Out\LQ_Encoder.obj (LQ_Encoder)
         COMMENT TYPE 0: C251 V5.60.0
  .\OBJ_Out\LQ_GPIO.obj (LQ_GPIO)
         COMMENT TYPE 0: C251 V5.60.0
  .\OBJ_Out\LQ_GPIO_LED.obj (LQ_GPIO_LED)
         COMMENT TYPE 0: C251 V5.60.0
  .\OBJ_Out\LQ_HSPI.obj (LQ_HSPI)
         COMMENT TYPE 0: C251 V5.60.0
  .\OBJ_Out\LQ_I2C_VL53.obj (LQ_I2C_VL53)
         COMMENT TYPE 0: C251 V5.60.0
  .\OBJ_Out\LQ_KEY.obj (LQ_KEY)
         COMMENT TYPE 0: C251 V5.60.0
  .\OBJ_Out\LQ_LSM6DSR.obj (LQ_LSM6DSR)
         COMMENT TYPE 0: C251 V5.60.0
  .\OBJ_Out\LQ_MotorServo.obj (LQ_MotorServo)
         COMMENT TYPE 0: C251 V5.60.0
  .\OBJ_Out\LQ_OLED096.obj (LQ_OLED096)
         COMMENT TYPE 0: C251 V5.60.0
  .\OBJ_Out\LQ_SBUS.obj (LQ_SBUS)
         COMMENT TYPE 0: C251 V5.60.0
  .\OBJ_Out\LQ_Soft_I2C.obj (LQ_Soft_I2C)
         COMMENT TYPE 0: C251 V5.60.0
  .\OBJ_Out\LQ_Soft_SPI.obj (LQ_Soft_SPI)
         COMMENT TYPE 0: C251 V5.60.0
  .\OBJ_Out\LQ_TIMER.obj (LQ_TIMER)
         COMMENT TYPE 0: C251 V5.60.0
  .\OBJ_Out\LQ_UART.obj (LQ_UART)
         COMMENT TYPE 0: C251 V5.60.0
  .\OBJ_Out\LQ_WDT.obj (LQ_WDT)
         COMMENT TYPE 0: C251 V5.60.0
  .\OBJ_Out\LQ_XINT.obj (LQ_XINT)
         COMMENT TYPE 0: C251 V5.60.0
  .\OBJ_Out\AI8051U_ADC_Isr.obj (AI8051U_ADC_Isr)
L251 LINKER/LOCATER V4.66.93.0                                                        03/28/2026  21:02:40  PAGE 2


         COMMENT TYPE 0: C251 V5.60.0
  .\OBJ_Out\AI8051U_DMA_Isr.obj (AI8051U_DMA_Isr)
         COMMENT TYPE 0: C251 V5.60.0
  .\OBJ_Out\AI8051U_Exti_Isr.obj (AI8051U_Exti_Isr)
         COMMENT TYPE 0: C251 V5.60.0
  .\OBJ_Out\AI8051U_GPIO_Isr.obj (AI8051U_GPIO_Isr)
         COMMENT TYPE 0: C251 V5.60.0
  .\OBJ_Out\AI8051U_PWM_Isr.obj (AI8051U_PWM_Isr)
         COMMENT TYPE 0: C251 V5.60.0
  .\OBJ_Out\AI8051U_SPI_Isr.obj (AI8051U_SPI_Isr)
         COMMENT TYPE 0: C251 V5.60.0
  .\OBJ_Out\AI8051U_Timer_Isr.obj (AI8051U_Timer_Isr)
         COMMENT TYPE 0: C251 V5.60.0
  .\OBJ_Out\AI8051U_UART_Isr.obj (AI8051U_UART_Isr)
         COMMENT TYPE 0: C251 V5.60.0
  .\OBJ_Out\AI8051U_ADC.obj (AI8051U_ADC)
         COMMENT TYPE 0: C251 V5.60.0
  .\OBJ_Out\AI8051U_Clock.obj (AI8051U_Clock)
         COMMENT TYPE 0: C251 V5.60.0
  .\OBJ_Out\AI8051U_Delay.obj (AI8051U_Delay)
         COMMENT TYPE 0: C251 V5.60.0
  .\OBJ_Out\AI8051U_DMA.obj (AI8051U_DMA)
         COMMENT TYPE 0: C251 V5.60.0
  .\OBJ_Out\AI8051U_EEPROM.obj (AI8051U_EEPROM)
         COMMENT TYPE 0: C251 V5.60.0
  .\OBJ_Out\AI8051U_Exti.obj (AI8051U_Exti)
         COMMENT TYPE 0: C251 V5.60.0
  .\OBJ_Out\AI8051U_GPIO.obj (AI8051U_GPIO)
         COMMENT TYPE 0: C251 V5.60.0
  .\OBJ_Out\AI8051U_NVIC.obj (AI8051U_NVIC)
         COMMENT TYPE 0: C251 V5.60.0
  .\OBJ_Out\AI8051U_PWM.obj (AI8051U_PWM)
         COMMENT TYPE 0: C251 V5.60.0
  .\OBJ_Out\AI8051U_SPI.obj (AI8051U_SPI)
         COMMENT TYPE 0: C251 V5.60.0
  .\OBJ_Out\AI8051U_Timer.obj (AI8051U_Timer)
         COMMENT TYPE 0: C251 V5.60.0
  .\OBJ_Out\AI8051U_UART.obj (AI8051U_UART)
         COMMENT TYPE 0: C251 V5.60.0
  .\OBJ_Out\AI8051U_WDT.obj (AI8051U_WDT)
         COMMENT TYPE 0: C251 V5.60.0
  F:\KEIL_V5\C251\LIB\C2SDPL.LIB (?C?DPADD)
         COMMENT TYPE 0: A251 V4.69.6.0
  F:\KEIL_V5\C251\LIB\C2SDPL.LIB (?C?DPMUL)
         COMMENT TYPE 0: A251 V4.69.6.0
  F:\KEIL_V5\C251\LIB\C2SDPL.LIB (?C?DPDIV)
         COMMENT TYPE 0: A251 V4.69.6.0
  F:\KEIL_V5\C251\LIB\C2SDPL.LIB (?C?DPCMP)
         COMMENT TYPE 0: A251 V4.69.6.0
  F:\KEIL_V5\C251\LIB\C2SDPL.LIB (?C?DPNEG)
         COMMENT TYPE 0: A251 V4.69.6.0
  F:\KEIL_V5\C251\LIB\C2SDPL.LIB (?C?DCAST)
         COMMENT TYPE 0: A251 V4.69.6.0
  F:\KEIL_V5\C251\LIB\C2SDPL.LIB (?C?CASTD)
         COMMENT TYPE 0: A251 V4.69.6.0
  F:\KEIL_V5\C251\LIB\C2SDPL.LIB (?C?DCASTF)
         COMMENT TYPE 0: A251 V4.69.6.0
  F:\KEIL_V5\C251\LIB\C2SDPL.LIB (?C?FCASTD)
         COMMENT TYPE 0: A251 V4.69.6.0
  F:\KEIL_V5\C251\LIB\C2SDPL.LIB (PRINTF)
         COMMENT TYPE 0: A251 V4.69.6.0
  F:\KEIL_V5\C251\LIB\C2SDPL.LIB (SPRINTF)
         COMMENT TYPE 0: A251 V4.69.6.0
  F:\KEIL_V5\C251\LIB\C2SDPL.LIB (SSCANF)
         COMMENT TYPE 0: A251 V4.69.6.0
L251 LINKER/LOCATER V4.66.93.0                                                        03/28/2026  21:02:40  PAGE 3


  F:\KEIL_V5\C251\LIB\C2SDPL.LIB (FABS)
         COMMENT TYPE 0: A251 V4.69.6.0
  F:\KEIL_V5\C251\LIB\C2SDPL.LIB (EXP?_)
         COMMENT TYPE 0: A251 V4.69.6.0
  F:\KEIL_V5\C251\LIB\C2SDPL.LIB (?C?DPGETOPN)
         COMMENT TYPE 0: A251 V4.69.6.0
  F:\KEIL_V5\C251\LIB\C2SDPL.LIB (?C?PRNFMT)
         COMMENT TYPE 0: A251 V4.69.6.0
  F:\KEIL_V5\C251\LIB\C2SDPL.LIB (?C?SCANFP)
         COMMENT TYPE 0: A251 V4.69.6.0
  F:\KEIL_V5\C251\LIB\C2SDPL.LIB (?C?DPSERIES)
         COMMENT TYPE 0: A251 V4.69.6.0
  F:\KEIL_V5\C251\LIB\C2SDPL.LIB (?C?DPCONVERT)
         COMMENT TYPE 0: A251 V4.69.6.0
  F:\KEIL_V5\C251\LIB\C2SDPL.LIB (?C?DPATOF)
         COMMENT TYPE 0: A251 V4.69.6.0
  F:\KEIL_V5\C251\LIB\C2SDPL.LIB (?C?DTNPWR)
         COMMENT TYPE 0: A251 V4.69.6.0
  F:\KEIL_V5\C251\LIB\C2SFPL.LIB (?C?FPGETOPN)
         COMMENT TYPE 0: A251 V4.69.6.0
  F:\KEIL_V5\C251\LIB\C2SFPL.LIB (?C?FPADD)
         COMMENT TYPE 0: A251 V4.69.6.0
  F:\KEIL_V5\C251\LIB\C2SFPL.LIB (?C?FPMUL)
         COMMENT TYPE 0: A251 V4.69.6.0
  F:\KEIL_V5\C251\LIB\C2SFPL.LIB (?C?FPDIV)
         COMMENT TYPE 0: A251 V4.69.6.0
  F:\KEIL_V5\C251\LIB\C2SFPL.LIB (?C?FPCMP)
         COMMENT TYPE 0: A251 V4.69.6.0
  F:\KEIL_V5\C251\LIB\C2SFPL.LIB (?C?CASTF)
         COMMENT TYPE 0: A251 V4.69.6.0
  F:\KEIL_V5\C251\LIB\C2SFPL.LIB (?C?ATOF)
         COMMENT TYPE 0: A251 V4.69.6.0
  F:\KEIL_V5\C251\LIB\C2SFPL.LIB (?C?FPNEG)
         COMMENT TYPE 0: A251 V4.69.6.0
  F:\KEIL_V5\C251\LIB\C2SFPL.LIB (?C?FCAST)
         COMMENT TYPE 0: A251 V4.69.6.0
  F:\KEIL_V5\C251\LIB\C2SFPL.LIB (?C?FTNPWR)
         COMMENT TYPE 0: A251 V4.69.6.0
  F:\KEIL_V5\C251\LIB\C2SL.LIB (?C_START)
         COMMENT TYPE 0: A251 V4.69.6.0
  F:\KEIL_V5\C251\LIB\C2SL.LIB (?C?INITHDATA)
         COMMENT TYPE 0: A251 V4.69.6.0
  F:\KEIL_V5\C251\LIB\C2SL.LIB (?C?SIDIV)
         COMMENT TYPE 0: A251 V4.69.6.0
  F:\KEIL_V5\C251\LIB\C2SL.LIB (?C?LIMUL)
         COMMENT TYPE 0: A251 V4.69.6.0
  F:\KEIL_V5\C251\LIB\C2SL.LIB (?C?ULDIV)
         COMMENT TYPE 0: A251 V4.69.6.0
  F:\KEIL_V5\C251\LIB\C2SL.LIB (?C?SLDIV)
         COMMENT TYPE 0: A251 V4.69.6.0
  F:\KEIL_V5\C251\LIB\C2SL.LIB (?C?BMOVEPP)
         COMMENT TYPE 0: A251 V4.69.6.0
  F:\KEIL_V5\C251\LIB\C2SL.LIB (ISDIGIT)
         COMMENT TYPE 0: C251 V5.58.7
  F:\KEIL_V5\C251\LIB\C2SL.LIB (ISSPACE)
         COMMENT TYPE 0: C251 V5.58.7
  F:\KEIL_V5\C251\LIB\C2SL.LIB (STRCPY?_)
         COMMENT TYPE 0: A251 V4.69.6.0
  F:\KEIL_V5\C251\LIB\C2SL.LIB (STRLEN)
         COMMENT TYPE 0: C251 V5.58.7
  F:\KEIL_V5\C251\LIB\C2SL.LIB (STRCHR)
         COMMENT TYPE 0: C251 V5.58.7
  F:\KEIL_V5\C251\LIB\C2SL.LIB (STRSTR)
         COMMENT TYPE 0: C251 V5.58.7
  F:\KEIL_V5\C251\LIB\C2SL.LIB (memcpy)
L251 LINKER/LOCATER V4.66.93.0                                                        03/28/2026  21:02:40  PAGE 4


         COMMENT TYPE 0: C251 V5.58.7
  F:\KEIL_V5\C251\LIB\C2SL.LIB (?C?INITHDATA_END)
         COMMENT TYPE 0: A251 V4.69.6.0


ACTIVE MEMORY CLASSES OF MODULE:  .\OBJ_Out\LQ_STCAI8051_LIB (control)

BASE        START       END         USED      MEMORY CLASS
==========================================================
000000H     000000H     0007FFH     000400H   EDATA
000000H     000000H     0007FFH               HDATA
FF0000H     FF0000H     FFFFFFH     005B6AH   CODE
010000H     010000H     01FFFFH     00061DH   XDATA
000000H     FF0000H     FFFFFFH     001506H   HCONST
000020H.0   000020H.0   00002FH.7   000002H.7 BIT
FF0000H     FF0000H     FFFFFFH     000004H   CONST
000000H     000000H     00007FH     000008H   DATA


MEMORY MAP OF MODULE:  .\OBJ_Out\LQ_STCAI8051_LIB (control)


START     STOP      LENGTH    ALIGN  RELOC    MEMORY CLASS   SEGMENT NAME
=========================================================================
000000H   000007H   000008H   ---    AT..     DATA           "REG BANK 0"
000008H.0 00001FH.7 000018H.0 ---    ---      **GAP**
000020H.0 000022H.2 000002H.3 BIT    UNIT     BIT            ?BI?AI8051U_DMA_ISR
000022H.3 000022H.4 000000H.2 BIT    UNIT     BIT            ?BI?AI8051U_UART_ISR
000022H.5 000022H.5 000000H.1 BIT    UNIT     BIT            ?BI?LQ_LSM6DSR
000022H.6 000022H.6 000000H.1 BIT    UNIT     BIT            ?BI?AI8051U_SPI
000022H.7 000022H   000000H.1 ---    ---      **GAP**
000023H   0002A2H   000280H   BYTE   UNIT     EDATA          ?ED?AI8051U_UART
0002A3H   000322H   000080H   BYTE   UNIT     EDATA          ?ED?AI8051U_SPI
000323H   000422H   000100H   BYTE   UNIT     EDATA          ?STACK
000423H   00FFFFH   00FBDDH   ---    ---      **GAP**
010000H   01022AH   00022BH   BYTE   INSEG    XDATA          ?XD?CONTROL
01022BH   01032AH   000100H   BYTE   INSEG    XDATA          ?XD?LQ_UART
01032BH   0103F7H   0000CDH   BYTE   INSEG    XDATA          ?XD?LQ_BDGPS
0103F8H   01047BH   000084H   BYTE   INSEG    XDATA          ?XD?AI8051U_UART_ISR
01047CH   0104FCH   000081H   BYTE   INSEG    XDATA          ?XD?LQ_CCD
0104FDH   01056EH   000072H   BYTE   UNIT     XDATA          _XDATA_GROUP_
01056FH   0105C2H   000054H   BYTE   INSEG    XDATA          ?XD?LQ_SBUS
0105C3H   010602H   000040H   BYTE   INSEG    XDATA          ?XD?MAIN
010603H   010611H   00000FH   BYTE   INSEG    XDATA          ?XD?AI8051U_UART
010612H   010616H   000005H   BYTE   INSEG    XDATA          ?XD?AI8051U_TIMER_ISR
010617H   010618H   000002H   BYTE   INSEG    XDATA          ?XD?AI8051U_DMA_ISR
010619H   01061AH   000002H   BYTE   INSEG    XDATA          ?XD?AI8051U_SPI
01061BH   01061BH   000001H   BYTE   INSEG    XDATA          ?XD?LQ_I2C_VL53
01061CH   01061CH   000001H   BYTE   INSEG    XDATA          ?XD?AI8051U_SPI_ISR
01061DH   FEFFFFH   FDF9E3H   ---    ---      **GAP**
FF0000H   FF0002H   000003H   ---    OFFS..   CODE           ?CO?start251?4
FF0003H   FF0005H   000003H   ---    OFFS..   CODE           ?PR?IV?0
FF0006H   FF000AH   000005H   BYTE   INSEG    CODE           ?PR?SPI_READ_BUF?LQ_LSM6DSR
FF000BH   FF000DH   000003H   ---    OFFS..   CODE           ?PR?IV?1
FF000EH   FF0011H   000004H   BYTE   INSEG    CODE           ?PR?ADC_ISR_HANDLER?AI8051U_ADC_ISR
FF0012H   FF0012H   000001H   BYTE   INSEG    CODE           ?PR?INT0_ISR_HANDLER?AI8051U_EXTI_ISR
FF0013H   FF0015H   000003H   ---    OFFS..   CODE           ?PR?IV?2
FF0016H   FF0018H   000003H   BYTE   INSEG    CODE           ?PR?SPI_WRITE_REG?LQ_LSM6DSR
FF0019H   FF0019H   000001H   BYTE   INSEG    CODE           ?PR?INT1_ISR_HANDLER?AI8051U_EXTI_ISR
FF001AH   FF001AH   000001H   BYTE   INSEG    CODE           ?PR?INT2_ISR_HANDLER?AI8051U_EXTI_ISR
FF001BH   FF001DH   000003H   ---    OFFS..   CODE           ?PR?IV?3
FF001EH   FF0020H   000003H   BYTE   INSEG    CODE           ?PR?IIC_DELAY?LQ_SOFT_I2C
FF0021H   FF0021H   000001H   BYTE   INSEG    CODE           ?PR?INT3_ISR_HANDLER?AI8051U_EXTI_ISR
FF0022H   FF0022H   000001H   BYTE   INSEG    CODE           ?PR?INT4_ISR_HANDLER?AI8051U_EXTI_ISR
FF0023H   FF0025H   000003H   ---    OFFS..   CODE           ?PR?IV?4
L251 LINKER/LOCATER V4.66.93.0                                                        03/28/2026  21:02:40  PAGE 5


FF0026H   FF0026H   000001H   BYTE   INSEG    CODE           ?PR?TIMER2_ISR_HANDLER?AI8051U_TIMER_ISR
FF0027H   FF0027H   000001H   BYTE   INSEG    CODE           ?PR?TIMER3_ISR_HANDLER?AI8051U_TIMER_ISR
FF0028H   FF0028H   000001H   BYTE   INSEG    CODE           ?PR?TIMER4_ISR_HANDLER?AI8051U_TIMER_ISR
FF0029H   FF002AH   000002H   ---    ---      **GAP**
FF002BH   FF002DH   000003H   ---    OFFS..   CODE           ?PR?IV?5
FF002EH   FF0048H   00001BH   BYTE   INSEG    CODE           ?PR?LQ_SPI_WRITE?LQ_SOFT_SPI
FF0049H   FF004AH   000002H   ---    ---      **GAP**
FF004BH   FF004DH   000003H   ---    OFFS..   CODE           ?PR?IV?9
FF004EH   FF0051H   000004H   BYTE   UNIT     CONST          ?CO?PRINTF
FF0052H   FF0052H   000001H   ---    ---      **GAP**
FF0053H   FF0055H   000003H   ---    OFFS..   CODE           ?PR?IV?10
FF0056H   FF005AH   000005H   ---    ---      **GAP**
FF005BH   FF005DH   000003H   ---    OFFS..   CODE           ?PR?IV?11
FF005EH   FF0062H   000005H   ---    ---      **GAP**
FF0063H   FF0065H   000003H   ---    OFFS..   CODE           ?PR?IV?12
FF0066H   FF006AH   000005H   ---    ---      **GAP**
FF006BH   FF006DH   000003H   ---    OFFS..   CODE           ?PR?IV?13
FF006EH   FF0081H   000014H   BYTE   INSEG    CODE           ?PR?LQ_SPI_LSM60DSR_GETID?LQ_LSM6DSR
FF0082H   FF0082H   000001H   ---    ---      **GAP**
FF0083H   FF0085H   000003H   ---    OFFS..   CODE           ?PR?IV?16
FF0086H   FF008AH   000005H   ---    ---      **GAP**
FF008BH   FF008DH   000003H   ---    OFFS..   CODE           ?PR?IV?17
FF008EH   FF0092H   000005H   ---    ---      **GAP**
FF0093H   FF0095H   000003H   ---    OFFS..   CODE           ?PR?IV?18
FF0096H   FF009AH   000005H   ---    ---      **GAP**
FF009BH   FF009DH   000003H   ---    OFFS..   CODE           ?PR?IV?19
FF009EH   FF00A2H   000005H   ---    ---      **GAP**
FF00A3H   FF00A5H   000003H   ---    OFFS..   CODE           ?PR?IV?20
FF00A6H   FF00D1H   00002CH   BYTE   INSEG    CODE           ?PR?TIMER1_ISR_HANDLER?AI8051U_TIMER_ISR
FF00D2H   FF00D2H   000001H   ---    ---      **GAP**
FF00D3H   FF00D5H   000003H   ---    OFFS..   CODE           ?PR?IV?26
FF00D6H   FF00DAH   000005H   ---    ---      **GAP**
FF00DBH   FF00DDH   000003H   ---    OFFS..   CODE           ?PR?IV?27
FF00DEH   FF0129H   00004CH   BYTE   INSEG    CODE           ?PR?SPI_MAG_READ_REG?LQ_LSM6DSR
FF012AH   FF012AH   000001H   ---    ---      **GAP**
FF012BH   FF012DH   000003H   ---    OFFS..   CODE           ?PR?IV?37
FF012EH   FF0132H   000005H   ---    ---      **GAP**
FF0133H   FF0135H   000003H   ---    OFFS..   CODE           ?PR?IV?38
FF0136H   FF0178H   000043H   BYTE   INSEG    CODE           ?PR?SOFT_SPI_READWRITENBYTE?LQ_SOFT_SPI
FF0179H   FF017AH   000002H   ---    ---      **GAP**
FF017BH   FF017DH   000003H   ---    OFFS..   CODE           ?PR?IV?47
FF017EH   FF0182H   000005H   ---    ---      **GAP**
FF0183H   FF0185H   000003H   ---    OFFS..   CODE           ?PR?IV?48
FF0186H   FF018AH   000005H   ---    ---      **GAP**
FF018BH   FF018DH   000003H   ---    OFFS..   CODE           ?PR?IV?49
FF018EH   FF0192H   000005H   ---    ---      **GAP**
FF0193H   FF0195H   000003H   ---    OFFS..   CODE           ?PR?IV?50
FF0196H   FF019AH   000005H   ---    ---      **GAP**
FF019BH   FF019DH   000003H   ---    OFFS..   CODE           ?PR?IV?51
FF019EH   FF01A2H   000005H   ---    ---      **GAP**
FF01A3H   FF01A5H   000003H   ---    OFFS..   CODE           ?PR?IV?52
FF01A6H   FF01AAH   000005H   ---    ---      **GAP**
FF01ABH   FF01ADH   000003H   ---    OFFS..   CODE           ?PR?IV?53
FF01AEH   FF01B2H   000005H   ---    ---      **GAP**
FF01B3H   FF01B5H   000003H   ---    OFFS..   CODE           ?PR?IV?54
FF01B6H   FF01BAH   000005H   ---    ---      **GAP**
FF01BBH   FF01BDH   000003H   ---    OFFS..   CODE           ?PR?IV?55
FF01BEH   FF01C2H   000005H   ---    ---      **GAP**
FF01C3H   FF01C5H   000003H   ---    OFFS..   CODE           ?PR?IV?56
FF01C6H   FF01CAH   000005H   ---    ---      **GAP**
FF01CBH   FF01CDH   000003H   ---    OFFS..   CODE           ?PR?IV?57
FF01CEH   FF01D2H   000005H   ---    ---      **GAP**
FF01D3H   FF01D5H   000003H   ---    OFFS..   CODE           ?PR?IV?58
FF01D6H   FF01E0H   00000BH   BYTE   INSEG    CODE           ?PR?TIM_INIT_MS?LQ_TIMER
FF01E1H   FF01E2H   000002H   ---    ---      **GAP**
L251 LINKER/LOCATER V4.66.93.0                                                        03/28/2026  21:02:40  PAGE 6


FF01E3H   FF01E5H   000003H   ---    OFFS..   CODE           ?PR?IV?60
FF01E6H   FF01EAH   000005H   ---    ---      **GAP**
FF01EBH   FF01EDH   000003H   ---    OFFS..   CODE           ?PR?IV?61
FF01EEH   FF0219H   00002CH   BYTE   INSEG    CODE           ?PR?TIMER11_ISR_HANDLER?AI8051U_TIMER_ISR
FF021AH   FF021AH   000001H   ---    ---      **GAP**
FF021BH   FF021DH   000003H   ---    OFFS..   CODE           ?PR?IV?67
FF021EH   FF18E9H   0016CCH   BYTE   UNIT     CODE           ?C?LIB_CODE
FF18EAH   FF216CH   000883H   BYTE   INSEG    CODE           ?PR?DIR_CONTROL?CONTROL
FF216DH   FF2786H   00061AH   BYTE   INSEG    CODE           ?PR?PWM_CONFIGURATION?AI8051U_PWM
FF2787H   FF2BFBH   000475H   BYTE   INSEG    CODE           ?PR?GPIO_INITCONFIG?LQ_GPIO
FF2BFCH   FF2FDAH   0003DFH   BYTE   INSEG    CODE           ?PR?MAIN?MAIN
FF2FDBH   FF32D6H   0002FCH   BYTE   INSEG    CODE           ?PR?KEY_SCAN?CONTROL
FF32D7H   FF3597H   0002C1H   BYTE   INSEG    CODE           ?PR?TIMER_INILIZE?AI8051U_TIMER
FF3598H   FF3836H   00029FH   BYTE   INSEG    CODE           ?PR?MOTOR_CONTROL?CONTROL
FF3837H   FF3AC2H   00028CH   BYTE   INSEG    CODE           ?PR?TIMER0_ISR_HANDLER?AI8051U_TIMER_ISR
FF3AC3H   FF3D18H   000256H   BYTE   INSEG    CODE           ?PR?GPIO_INILIZE?AI8051U_GPIO
FF3D19H   FF3F39H   000221H   BYTE   INSEG    CODE           ?PR?PID_REALIZE?CONTROL
FF3F3AH   FF40DEH   0001A5H   BYTE   INSEG    CODE           ?PR?ANGLE_PID?CONTROL
FF40DFH   FF4259H   00017BH   BYTE   INSEG    CODE           ?PR?TIM_INIT?LQ_TIMER
FF425AH   FF43D0H   000177H   BYTE   INSEG    CODE           ?PR?DMA_ISR_HANDLER?AI8051U_DMA_ISR
FF43D1H   FF4520H   000150H   BYTE   INSEG    CODE           ?PR?UPDATEPWMCH?AI8051U_PWM
FF4521H   FF4667H   000147H   BYTE   INSEG    CODE           ?PR?CALCULATE_WEIGHT_MID?CONTROL
FF4668H   FF4788H   000121H   BYTE   INSEG    CODE           ?PR?UPDATE_SBUS?LQ_SBUS
FF4789H   FF4887H   0000FFH   BYTE   INSEG    CODE           ?PR?PLACEPID_CONTROL?CONTROL
FF4888H   FF4974H   0000EDH   BYTE   INSEG    CODE           ?PR?LQ_SPI_LSM60DSR_INIT?LQ_LSM6DSR
FF4975H   FF4A59H   0000E5H   BYTE   INSEG    CODE           ?PR?ANGLE_CALCULATE?CONTROL
FF4A5AH   FF4B29H   0000D0H   BYTE   INSEG    CODE           ?PR?OLED_INIT?LQ_OLED096
FF4B2AH   FF4BF6H   0000CDH   BYTE   INSEG    CODE           ?PR?UART3_ISR_HANDLER?AI8051U_UART_ISR
FF4BF7H   FF4CB3H   0000BDH   BYTE   INSEG    CODE           ?PR?LQ_SPI_LSM60DSR_READ?LQ_LSM6DSR
FF4CB4H   FF4D6CH   0000B9H   BYTE   INSEG    CODE           ?PR?MOTOR_INIT?LQ_MOTORSERVO
FF4D6DH   FF4E1CH   0000B0H   BYTE   INSEG    CODE           ?PR?OLED_P6X8STR?LQ_OLED096
FF4E1DH   FF4EC9H   0000ADH   BYTE   INSEG    CODE           ?PR?CALCULATE_VERTICAL?CONTROL
FF4ECAH   FF4F6CH   0000A3H   BYTE   INSEG    CODE           ?PR?UART4_ISR_HANDLER?AI8051U_UART_ISR
FF4F6DH   FF5008H   00009CH   BYTE   INSEG    CODE           ?PR?NVIC_PWM_INIT?AI8051U_NVIC
FF5009H   FF5094H   00008CH   BYTE   INSEG    CODE           ?PR?READ_ENCODER?LQ_ENCODER
FF5095H   FF5115H   000081H   BYTE   INSEG    CODE           ?PR?PWMA_ISR_HANDLER?AI8051U_PWM_ISR
FF5116H   FF5196H   000081H   BYTE   INSEG    CODE           ?PR?PWMB_ISR_HANDLER?AI8051U_PWM_ISR
FF5197H   FF51FFH   000069H   BYTE   INSEG    CODE           ?PR?SPI_MAG_WRITE_REG?LQ_LSM6DSR
FF5200H   FF5267H   000068H   BYTE   INSEG    CODE           ?PR?UART1_ISR_HANDLER?AI8051U_UART_ISR
FF5268H   FF52CBH   000064H   BYTE   INSEG    CODE           ?PR?GYRO_LSM6DSR_LQ9AGMV_CHECK?LQ_LSM6DSR
FF52CCH   FF532DH   000062H   BYTE   INSEG    CODE           ?PR?RANGE_PROTECT?CONTROL
FF532EH   FF538EH   000061H   BYTE   INSEG    CODE           ?PR?DMA_LCM_ISR_HANDLER?AI8051U_DMA_ISR
FF538FH   FF53EDH   00005FH   BYTE   INSEG    CODE           ?PR?GET_ADCRESULT?AI8051U_ADC
FF53EEH   FF544AH   00005DH   BYTE   INSEG    CODE           ?PR?ADC_INILIZE?AI8051U_ADC
FF544BH   FF545DH   000013H   BYTE   UNIT     CODE           ?C_C51STARTUP
FF545EH   FF5467H   00000AH   BYTE   UNIT     CODE           ?C_C51STARTUP?1
FF5468H   FF5498H   000031H   BYTE   UNIT     CODE           ?C_C51STARTUP?2
FF5499H   FF549BH   000003H   BYTE   UNIT     CODE           ?C_C51STARTUP?3
FF549CH   FF54E5H   00004AH   BYTE   INSEG    CODE           ?PR?LQ_SPI_READ?LQ_SOFT_SPI
FF54E6H   FF552DH   000048H   BYTE   INSEG    CODE           ?PR?LED_CTRL?LQ_GPIO_LED
FF552EH   FF5574H   000047H   BYTE   INSEG    CODE           ?PR?DMA_SPI_ISR_HANDLER?AI8051U_DMA_ISR
FF5575H   FF55BBH   000047H   BYTE   INSEG    CODE           ?PR?NVIC_TIMER0_INIT?AI8051U_NVIC
FF55BCH   FF5602H   000047H   BYTE   INSEG    CODE           ?PR?NVIC_TIMER1_INIT?AI8051U_NVIC
FF5603H   FF5649H   000047H   BYTE   INSEG    CODE           ?PR?NVIC_ADC_INIT?AI8051U_NVIC
FF564AH   FF568FH   000046H   BYTE   INSEG    CODE           ?PR?SPI_ISR_HANDLER?AI8051U_SPI_ISR
FF5690H   FF56CEH   00003FH   BYTE   INSEG    CODE           ?PR?ADC_INIT?LQ_ADC
FF56CFH   FF5709H   00003BH   BYTE   INSEG    CODE           ?PR?KEY_READ?LQ_KEY
FF570AH   FF5744H   00003BH   BYTE   INSEG    CODE           ?PR?MOTOR_CTRL?LQ_MOTORSERVO
FF5745H   FF5778H   000034H   BYTE   INSEG    CODE           ?PR?SYSTEM_INIT?MAIN
FF5779H   FF57ACH   000034H   BYTE   INSEG    CODE           ?PR?OLED_CLS?LQ_OLED096
FF57ADH   FF57DEH   000032H   BYTE   INSEG    CODE           ?PR?TIMER_ENCINIT?LQ_ENCODER
FF57DFH   FF580FH   000031H   BYTE   INSEG    CODE           ?PR?NVIC_TIMER11_INIT?AI8051U_NVIC
FF5810H   FF583EH   00002FH   BYTE   INSEG    CODE           ?PR?DMA_I2CR_ISR_HANDLER?AI8051U_DMA_ISR
FF583FH   FF586DH   00002FH   BYTE   INSEG    CODE           ?PR?DMA_I2CT_ISR_HANDLER?AI8051U_DMA_ISR
FF586EH   FF589CH   00002FH   BYTE   INSEG    CODE           ?PR?DMA_UART1RX_ISR_HANDLER?AI8051U_DMA_ISR
L251 LINKER/LOCATER V4.66.93.0                                                        03/28/2026  21:02:40  PAGE 7


FF589DH   FF58CBH   00002FH   BYTE   INSEG    CODE           ?PR?DMA_UART2RX_ISR_HANDLER?AI8051U_DMA_ISR
FF58CCH   FF58FAH   00002FH   BYTE   INSEG    CODE           ?PR?DMA_UART3RX_ISR_HANDLER?AI8051U_DMA_ISR
FF58FBH   FF5929H   00002FH   BYTE   INSEG    CODE           ?PR?DMA_UART1TX_ISR_HANDLER?AI8051U_DMA_ISR
FF592AH   FF5958H   00002FH   BYTE   INSEG    CODE           ?PR?DMA_UART4RX_ISR_HANDLER?AI8051U_DMA_ISR
FF5959H   FF5987H   00002FH   BYTE   INSEG    CODE           ?PR?DMA_UART2TX_ISR_HANDLER?AI8051U_DMA_ISR
FF5988H   FF59B6H   00002FH   BYTE   INSEG    CODE           ?PR?DMA_UART3TX_ISR_HANDLER?AI8051U_DMA_ISR
FF59B7H   FF59E5H   00002FH   BYTE   INSEG    CODE           ?PR?DMA_UART4TX_ISR_HANDLER?AI8051U_DMA_ISR
FF59E6H   FF5A14H   00002FH   BYTE   INSEG    CODE           ?PR?DMA_M2M_ISR_HANDLER?AI8051U_DMA_ISR
FF5A15H   FF5A39H   000025H   BYTE   INSEG    CODE           ?PR?OLED_WRCMD?LQ_OLED096
FF5A3AH   FF5A5EH   000025H   BYTE   INSEG    CODE           ?PR?OLED_WRDAT?LQ_OLED096
FF5A5FH   FF5A81H   000023H   BYTE   INSEG    CODE           ?PR?OLED_SET_POS?LQ_OLED096
FF5A82H   FF5AA3H   000022H   BYTE   INSEG    CODE           ?PR?PLL_INIT?MAIN
FF5AA4H   FF5AC5H   000022H   BYTE   INSEG    CODE           ?PR?P1INT_ISR_HANDLER?AI8051U_GPIO_ISR
FF5AC6H   FF5AE6H   000021H   BYTE   INSEG    CODE           ?PR?DMA_ADC_ISR_HANDLER?AI8051U_DMA_ISR
FF5AE7H   FF5B00H   00001AH   BYTE   INSEG    CODE           ?PR?P0INT_ISR_HANDLER?AI8051U_GPIO_ISR
FF5B01H   FF5B1AH   00001AH   BYTE   INSEG    CODE           ?PR?NVIC_TIMER3_INIT?AI8051U_NVIC
FF5B1BH   FF5B34H   00001AH   BYTE   INSEG    CODE           ?PR?NVIC_TIMER4_INIT?AI8051U_NVIC
FF5B35H   FF5B4CH   000018H   BYTE   INSEG    CODE           ?PR?SOFT_SPI_INIT?LQ_SOFT_SPI
FF5B4DH   FF5B63H   000017H   BYTE   INSEG    CODE           ?PR?DELAY_MS?AI8051U_DELAY
FF5B64H   FF5B79H   000016H   BYTE   INSEG    CODE           ?PR?GPIO_LED_INIT?LQ_GPIO_LED
FF5B7AH   FF5B8DH   000014H   BYTE   INSEG    CODE           ?PR?SPI_READ_REG?LQ_LSM6DSR
FF5B8EH   FF5BA1H   000014H   BYTE   INSEG    CODE           ?PR?DELAY_US?AI8051U_DELAY
FF5BA2H   FF5BB4H   000013H   BYTE   UNIT     CODE           ?PR?STRCPY?_
FF5BB5H   FF5BC4H   000010H   BYTE   INSEG    CODE           ?PR?UART1_PUTBUF?AI8051U_UART
FF5BC5H   FF5BD2H   00000EH   BYTE   INSEG    CODE           ?PR?ADC_POWERCONTROL?AI8051U_ADC
FF5BD3H   FF5BDDH   00000BH   BYTE   INSEG    CODE           ?PR?I2C_DELAY_2US?AI8051U_DELAY
FF5BDEH   FF5BE3H   000006H   BYTE   INSEG    CODE           ?PR?ULTIMA_CONTROL?CONTROL
FF5BE4H   FF6A76H   000E93H   BYTE   UNIT     HCONST         ?HC?LQ_OLED096
FF6A77H   FF6C0CH   000196H   BYTE   UNIT     HCONST         ?C_INITHDATA
FF6C0DH   FF6CCDH   0000C1H   BYTE   UNIT     HCONST         ?HC?LQ_BDGPS
FF6CCEH   FF6D8CH   0000BFH   BYTE   UNIT     HCONST         ?HC?LQ_EEPROM
FF6D8DH   FF6E20H   000094H   BYTE   UNIT     HCONST         ?HC?MAIN
FF6E21H   FF6EAEH   00008EH   BYTE   UNIT     HCONST         ?HC?LQ_LSM6DSR
FF6EAFH   FF6F1DH   00006FH   BYTE   UNIT     HCONST         ?HC?LQ_MOTORSERVO
FF6F1EH   FF6F83H   000066H   BYTE   UNIT     HCONST         ?HC?LQ_SBUS
FF6F84H   FF6FDEH   00005BH   BYTE   UNIT     HCONST         ?HC?LQ_ADC
FF6FDFH   FF7026H   000048H   BYTE   UNIT     HCONST         ?HC?LQ_UART
FF7027H   FF7061H   00003BH   BYTE   UNIT     HCONST         ?HC?LQ_I2C_VL53
FF7062H   FF7095H   000034H   BYTE   UNIT     HCONST         ?HC?LQ_ENCODER
FF7096H   FF70BEH   000029H   BYTE   UNIT     HCONST         ?HC?LQ_TIMER
FF70BFH   FF70DDH   00001FH   BYTE   UNIT     HCONST         ?HC?LQ_XINT
FF70DEH   FF70E9H   00000CH   BYTE   UNIT     HCONST         ?HC?LQ_CCD

* * * * * * * * *   R E M O V E D     S E G M E N T S   * * * * * * * *
   *DEL*:           000098H   BYTE   INSEG    CODE           ?PR?GET_SPEED_BY_ERROR?CONTROL
   *DEL*:           000050H   BYTE   INSEG    CODE           ?PR?CALCULATE_ERROR?CONTROL
   *DEL*:           0000EFH   BYTE   INSEG    CODE           ?PR?ADC_FILTER?CONTROL
   *DEL*:           00003BH   BYTE   INSEG    CODE           ?PR?MEDIAN_AVERAGE_FILTER?CONTROL
   *DEL*:           000008H   BYTE   UNIT     XDATA          ?XD?GET_SPEED_BY_ERROR?CONTROL
   *DEL*:           00017CH   BYTE   INSEG    CODE           ?PR?TEST_ADC?LQ_ADC
   *DEL*:           000014H   BYTE   UNIT     XDATA          ?XD?TEST_ADC?LQ_ADC
   *DEL*:           0001C1H   BYTE   INSEG    CODE           ?PR?PARSEGPSBUFFER?LQ_BDGPS
   *DEL*:           0000B7H   BYTE   INSEG    CODE           ?PR?GET_INTDATA?LQ_BDGPS
   *DEL*:           000276H   BYTE   INSEG    CODE           ?PR?TEST_BD_GPS?LQ_BDGPS
   *DEL*:           0000E8H   BYTE   INSEG    CODE           ?PR?GET_DOUBLEDATA?LQ_BDGPS
   *DEL*:           000252H   BYTE   INSEG    CODE           ?PR?MY_STRTOD?LQ_BDGPS
   *DEL*:           000014H   BYTE   UNIT     XDATA          ?XD?MY_STRTOD?LQ_BDGPS
   *DEL*:           000007H   BYTE   UNIT     XDATA          ?XD?PARSEGPSBUFFER?LQ_BDGPS
   *DEL*:           00000CH   BYTE   UNIT     XDATA          ?XD?GET_INTDATA?LQ_BDGPS
   *DEL*:           000018H   BYTE   UNIT     XDATA          ?XD?GET_DOUBLEDATA?LQ_BDGPS
   *DEL*:           000038H   BYTE   UNIT     XDATA          ?XD?TEST_BD_GPS?LQ_BDGPS
   *DEL*:           000031H   BYTE   INSEG    CODE           ?PR?CCD_GET_THRESHOLD?LQ_CCD
   *DEL*:           000003H   BYTE   INSEG    CODE           ?PR?CCD_DELAYUS?LQ_CCD
   *DEL*:           000072H   BYTE   INSEG    CODE           ?PR?BIN_CCD_FILTER?LQ_CCD
   *DEL*:           000032H   BYTE   INSEG    CODE           ?PR?CCD_BINARYZATION?LQ_CCD
L251 LINKER/LOCATER V4.66.93.0                                                        03/28/2026  21:02:40  PAGE 8


   *DEL*:           000084H   BYTE   INSEG    CODE           ?PR?TEST_CCD?LQ_CCD
   *DEL*:           000046H   BYTE   INSEG    CODE           ?PR?CCD1_INIT?LQ_CCD
   *DEL*:           00006AH   BYTE   INSEG    CODE           ?PR?CCD_COLLECT?LQ_CCD
   *DEL*:           000005H   BYTE   UNIT     XDATA          ?XD?CCD1_INIT?LQ_CCD
   *DEL*:           000003H   BYTE   UNIT     XDATA          ?XD?CCD_COLLECT?LQ_CCD
   *DEL*:           000004H   BYTE   UNIT     XDATA          ?XD?CCD_BINARYZATION?LQ_CCD
   *DEL*:           000100H   BYTE   UNIT     XDATA          ?XD?TEST_CCD?LQ_CCD
   *DEL*:           000027H   BYTE   INSEG    CODE           ?PR?IAP_WRITE_U16DATA?LQ_EEPROM
   *DEL*:           00000AH   BYTE   INSEG    CODE           ?PR?IAP_ERASE_PAGE?LQ_EEPROM
   *DEL*:           00005DH   BYTE   INSEG    CODE           ?PR?IAP_READ_BUFF?LQ_EEPROM
   *DEL*:           00005DH   BYTE   INSEG    CODE           ?PR?IAP_READ_NBYTE?LQ_EEPROM
   *DEL*:           000025H   BYTE   INSEG    CODE           ?PR?IAP_READ_SBYTE?LQ_EEPROM
   *DEL*:           000101H   BYTE   INSEG    CODE           ?PR?IAP_WRITE_BUFF?LQ_EEPROM
   *DEL*:           00005DH   BYTE   INSEG    CODE           ?PR?IAP_WRITE_NBYTE?LQ_EEPROM
   *DEL*:           000025H   BYTE   INSEG    CODE           ?PR?IAP_READ_BYTE?LQ_EEPROM
   *DEL*:           000025H   BYTE   INSEG    CODE           ?PR?IAP_WRITE_BYTE?LQ_EEPROM
   *DEL*:           000207H   BYTE   INSEG    CODE           ?PR?TEST_EEPROM?LQ_EEPROM
   *DEL*:           00002EH   BYTE   INSEG    CODE           ?PR?IAP_READ_U16DATA?LQ_EEPROM
   *DEL*:           000002H   BYTE   UNIT     XDATA          ?XD?IAP_WRITE_U16DATA?LQ_EEPROM
   *DEL*:           000002H   BYTE   UNIT     XDATA          ?XD?IAP_READ_U16DATA?LQ_EEPROM
   *DEL*:           000006H   BYTE   UNIT     XDATA          ?XD?IAP_WRITE_NBYTE?LQ_EEPROM
   *DEL*:           000006H   BYTE   UNIT     XDATA          ?XD?IAP_READ_NBYTE?LQ_EEPROM
   *DEL*:           00001EH   BYTE   UNIT     XDATA          ?XD?IAP_WRITE_BUFF?LQ_EEPROM
   *DEL*:           000006H   BYTE   UNIT     XDATA          ?XD?IAP_READ_BUFF?LQ_EEPROM
   *DEL*:           000020H   BYTE   UNIT     XDATA          ?XD?TEST_EEPROM?LQ_EEPROM
   *DEL*:           0000D7H   BYTE   INSEG    CODE           ?PR?TEST_ENCODER?LQ_ENCODER
   *DEL*:           000010H   BYTE   UNIT     XDATA          ?XD?TEST_ENCODER?LQ_ENCODER
   *DEL*:           000001H   BYTE   INSEG    CODE           ?PR?GPIO_READ_PIN?LQ_GPIO
   *DEL*:           000122H   BYTE   INSEG    CODE           ?PR?GPIO_READPIN?LQ_GPIO
   *DEL*:           0001D3H   BYTE   INSEG    CODE           ?PR?GPIO_WRITEPIN?LQ_GPIO
   *DEL*:           000000H.1 BIT    UNIT     BIT            ?BI?GPIO_WRITEPIN?LQ_GPIO
   *DEL*:           00001CH   BYTE   INSEG    CODE           ?PR?TEST_GPIO_LED?LQ_GPIO_LED
   *DEL*:           000029H   BYTE   INSEG    CODE           ?PR?SPI_READ_NBYTE?LQ_HSPI
   *DEL*:           000026H   BYTE   INSEG    CODE           ?PR?SPI_WRITE_NBYTE?LQ_HSPI
   *DEL*:           000066H   BYTE   INSEG    CODE           ?PR?HSPI_INIT?LQ_HSPI
   *DEL*:           00000AH   BYTE   UNIT     XDATA          ?XD?HSPI_INIT?LQ_HSPI
   *DEL*:           000001H   BYTE   UNIT     XDATA          ?XD?SPI_WRITE_NBYTE?LQ_HSPI
   *DEL*:           000002H   BYTE   UNIT     XDATA          ?XD?SPI_READ_NBYTE?LQ_HSPI
   *DEL*:           0000A7H   BYTE   INSEG    CODE           ?PR?TEST_IIC_VL53?LQ_I2C_VL53
   *DEL*:           000005H   BYTE   INSEG    CODE           ?PR?VL53_READ_NBYTE?LQ_I2C_VL53
   *DEL*:           000005H   BYTE   INSEG    CODE           ?PR?VL53_WRITE_BYTE?LQ_I2C_VL53
   *DEL*:           000026H   BYTE   UNIT     XDATA          ?XD?TEST_IIC_VL53?LQ_I2C_VL53
   *DEL*:           00002CH   BYTE   INSEG    CODE           ?PR?KEY_READ_ALL?LQ_KEY
   *DEL*:           000013H   BYTE   INSEG    CODE           ?PR?GPIO_KEY_INIT?LQ_KEY
   *DEL*:           000039H   BYTE   INSEG    CODE           ?PR?TEST_GPIO_KEY?LQ_KEY
   *DEL*:           000013H   BYTE   INSEG    CODE           ?PR?LQ_IIC_LSM60DSR_GETID?LQ_LSM6DSR
   *DEL*:           00007BH   BYTE   INSEG    CODE           ?PR?GET_MAG_DATA?LQ_LSM6DSR
   *DEL*:           0001DFH   BYTE   INSEG    CODE           ?PR?TEST_I2C_LQLSM6DSR?LQ_LSM6DSR
   *DEL*:           0000C0H   BYTE   INSEG    CODE           ?PR?LQ_IIC_LSM60DSR_READ?LQ_LSM6DSR
   *DEL*:           00004DH   BYTE   INSEG    CODE           ?PR?LQ_IIC_LSM60DSR_INIT?LQ_LSM6DSR
   *DEL*:           0002BCH   BYTE   INSEG    CODE           ?PR?TEST_SPI_LQLSM6DSR?LQ_LSM6DSR
   *DEL*:           000001H   BYTE   UNIT     XDATA          ?XD?LQ_IIC_LSM60DSR_GETID?LQ_LSM6DSR
   *DEL*:           000020H   BYTE   UNIT     XDATA          ?XD?LQ_IIC_LSM60DSR_READ?LQ_LSM6DSR
   *DEL*:           000024H   BYTE   UNIT     XDATA          ?XD?TEST_I2C_LQLSM6DSR?LQ_LSM6DSR
   *DEL*:           00000EH   BYTE   UNIT     XDATA          ?XD?GET_MAG_DATA?LQ_LSM6DSR
   *DEL*:           000030H   BYTE   UNIT     XDATA          ?XD?TEST_SPI_LQLSM6DSR?LQ_LSM6DSR
   *DEL*:           0000C2H   BYTE   INSEG    CODE           ?PR?SERVO_INIT?LQ_MOTORSERVO
   *DEL*:           000039H   BYTE   INSEG    CODE           ?PR?SERVO_CTRL?LQ_MOTORSERVO
   *DEL*:           0000D8H   BYTE   INSEG    CODE           ?PR?TEST_SERVO?LQ_MOTORSERVO
   *DEL*:           0000C2H   BYTE   INSEG    CODE           ?PR?TEST_MOTOR?LQ_MOTORSERVO
   *DEL*:           00009CH   BYTE   INSEG    CODE           ?PR?TEST_BLSMOTOR?LQ_MOTORSERVO
   *DEL*:           0000C4H   BYTE   INSEG    CODE           ?PR?BLMOTOR_INIT?LQ_MOTORSERVO
   *DEL*:           000013H   BYTE   INSEG    CODE           ?PR?BLMOTOR_CTRL?LQ_MOTORSERVO
   *DEL*:           000010H   BYTE   UNIT     XDATA          ?XD?TEST_MOTOR?LQ_MOTORSERVO
   *DEL*:           000009H   BYTE   UNIT     XDATA          ?XD?SERVO_INIT?LQ_MOTORSERVO
L251 LINKER/LOCATER V4.66.93.0                                                        03/28/2026  21:02:40  PAGE 9


   *DEL*:           000024H   BYTE   UNIT     XDATA          ?XD?TEST_SERVO?LQ_MOTORSERVO
   *DEL*:           000009H   BYTE   UNIT     XDATA          ?XD?BLMOTOR_INIT?LQ_MOTORSERVO
   *DEL*:           000024H   BYTE   UNIT     XDATA          ?XD?TEST_BLSMOTOR?LQ_MOTORSERVO
   *DEL*:           00018FH   BYTE   INSEG    CODE           ?PR?OLED_ROAD?LQ_OLED096
   *DEL*:           000035H   BYTE   INSEG    CODE           ?PR?OLED_FILL?LQ_OLED096
   *DEL*:           00013DH   BYTE   INSEG    CODE           ?PR?OLED_RECTANGLE?LQ_OLED096
   *DEL*:           000038H   BYTE   INSEG    CODE           ?PR?TEST_OLED?LQ_OLED096
   *DEL*:           0000FFH   BYTE   INSEG    CODE           ?PR?OLED_P8X16STR?LQ_OLED096
   *DEL*:           000035H   BYTE   INSEG    CODE           ?PR?OLED_SHOW_LQLOGO?LQ_OLED096
   *DEL*:           000053H   BYTE   INSEG    CODE           ?PR?OLED_PUTPIXEL?LQ_OLED096
   *DEL*:           00003CH   BYTE   INSEG    CODE           ?PR?OLED_CLRDOT?LQ_OLED096
   *DEL*:           0001D0H   BYTE   INSEG    CODE           ?PR?OLED_P14X16STR?LQ_OLED096
   *DEL*:           0000B6H   BYTE   INSEG    CODE           ?PR?OLED_SHOW_FRAME80?LQ_OLED096
   *DEL*:           0000B6H   BYTE   INSEG    CODE           ?PR?OLED_SHOW_FRAME94?LQ_OLED096
   *DEL*:           0000BCH   BYTE   INSEG    CODE           ?PR?OLED_SHOW_BMP?LQ_OLED096
   *DEL*:           000003H   BYTE   UNIT     XDATA          ?XD?OLED_RECTANGLE?LQ_OLED096
   *DEL*:           000006H   BYTE   UNIT     XDATA          ?XD?OLED_P8X16STR?LQ_OLED096
   *DEL*:           000007H   BYTE   UNIT     XDATA          ?XD?OLED_P14X16STR?LQ_OLED096
   *DEL*:           000007H   BYTE   UNIT     XDATA          ?XD?OLED_SHOW_BMP?LQ_OLED096
   *DEL*:           000009H   BYTE   UNIT     XDATA          ?XD?OLED_ROAD?LQ_OLED096
   *DEL*:           0000BBH   BYTE   INSEG    CODE           ?PR?TEST_HOTRC?LQ_SBUS
   *DEL*:           0000A5H   BYTE   INSEG    CODE           ?PR?IIC_READMULTBYTEFROMSLAVE?LQ_SOFT_I2C
   *DEL*:           000015H   BYTE   INSEG    CODE           ?PR?IIC_NACK?LQ_SOFT_I2C
   *DEL*:           000083H   BYTE   INSEG    CODE           ?PR?LQ_I2C_READ?LQ_SOFT_I2C
   *DEL*:           00003BH   BYTE   INSEG    CODE           ?PR?IIC_WRITEBYTETOSLAVE?LQ_SOFT_I2C
   *DEL*:           000072H   BYTE   INSEG    CODE           ?PR?LQ_I2C_WRITE?LQ_SOFT_I2C
   *DEL*:           000007H   BYTE   INSEG    CODE           ?PR?SOFT_I2C_INIT?LQ_SOFT_I2C
   *DEL*:           000072H   BYTE   INSEG    CODE           ?PR?IIC_WRITEMULTBYTETOSLAVE?LQ_SOFT_I2C
   *DEL*:           000015H   BYTE   INSEG    CODE           ?PR?IIC_ACK?LQ_SOFT_I2C
   *DEL*:           000018H   BYTE   INSEG    CODE           ?PR?IIC_START?LQ_SOFT_I2C
   *DEL*:           000039H   BYTE   INSEG    CODE           ?PR?IIC_READBYTE?LQ_SOFT_I2C
   *DEL*:           000033H   BYTE   INSEG    CODE           ?PR?IIC_SENDBYTE?LQ_SOFT_I2C
   *DEL*:           00002DH   BYTE   INSEG    CODE           ?PR?IIC_WAITACK?LQ_SOFT_I2C
   *DEL*:           000017H   BYTE   INSEG    CODE           ?PR?IIC_STOP?LQ_SOFT_I2C
   *DEL*:           000053H   BYTE   INSEG    CODE           ?PR?IIC_READBYTEFROMSLAVE?LQ_SOFT_I2C
   *DEL*:           000004H   BYTE   UNIT     XDATA          ?XD?IIC_READBYTEFROMSLAVE?LQ_SOFT_I2C
   *DEL*:           000005H   BYTE   UNIT     XDATA          ?XD?IIC_READMULTBYTEFROMSLAVE?LQ_SOFT_I2C
   *DEL*:           000004H   BYTE   UNIT     XDATA          ?XD?IIC_WRITEMULTBYTETOSLAVE?LQ_SOFT_I2C
   *DEL*:           000006H   BYTE   UNIT     XDATA          ?XD?LQ_I2C_WRITE?LQ_SOFT_I2C
   *DEL*:           000004H   BYTE   UNIT     XDATA          ?XD?LQ_I2C_READ?LQ_SOFT_I2C
   *DEL*:           000033H   BYTE   INSEG    CODE           ?PR?TEST_TIMER?LQ_TIMER
   *DEL*:           00000CH   BYTE   INSEG    CODE           ?PR?TIM_INIT_US?LQ_TIMER
   *DEL*:           000105H   BYTE   INSEG    CODE           ?PR?UART_INIT?LQ_UART
   *DEL*:           0000AEH   BYTE   INSEG    CODE           ?PR?TEST_UART?LQ_UART
   *DEL*:           0000C8H   BYTE   INSEG    CODE           ?PR?TEST_UART_DMA?LQ_UART
   *DEL*:           000060H   BYTE   INSEG    CODE           ?PR?UART1_DMA_CONFIG?LQ_UART
   *DEL*:           00000AH   BYTE   UNIT     XDATA          ?XD?UART1_DMA_CONFIG?LQ_UART
   *DEL*:           00000CH   BYTE   UNIT     XDATA          ?XD?UART_INIT?LQ_UART
   *DEL*:           000028H   BYTE   UNIT     XDATA          ?XD?TEST_UART_DMA?LQ_UART
   *DEL*:           000044H   BYTE   INSEG    CODE           ?PR?TEST_SAMPLE_WDT?LQ_WDT
   *DEL*:           00002DH   BYTE   INSEG    CODE           ?PR?WDT_INIT?LQ_WDT
   *DEL*:           000003H   BYTE   UNIT     XDATA          ?XD?WDT_INIT?LQ_WDT
   *DEL*:           0000FBH   BYTE   INSEG    CODE           ?PR?EXTI_INIT?LQ_XINT
   *DEL*:           00001FH   BYTE   INSEG    CODE           ?PR?TEST_EXINT?LQ_XINT
   *DEL*:           0004AAH   BYTE   INSEG    CODE           ?PR?GPIO_INT_INITE?LQ_XINT
   *DEL*:           00002CH   BYTE   INSEG    CODE           ?PR?GPIO_PXINT_INIT?LQ_XINT
   *DEL*:           0000DDH   BYTE   INSEG    CODE           ?PR?NVIC_PXINT_INIT?LQ_XINT
   *DEL*:           00001CH   BYTE   INSEG    CODE           ?PR?TEST_GPIO_PXINT?LQ_XINT
   *DEL*:           000001H   BYTE   UNIT     XDATA          ?XD?EXTI_INIT?LQ_XINT
   *DEL*:           000003H   BYTE   UNIT     XDATA          ?XD?GPIO_PXINT_INIT?LQ_XINT
   *DEL*:           000032H   BYTE   INSEG    CODE           ?PR?IRC32KCLKCONFIG?AI8051U_CLOCK
   *DEL*:           000031H   BYTE   INSEG    CODE           ?PR?HIRCCLKCONFIG?AI8051U_CLOCK
   *DEL*:           000032H   BYTE   INSEG    CODE           ?PR?XOSCCLKCONFIG?AI8051U_CLOCK
   *DEL*:           000059H   BYTE   INSEG    CODE           ?PR?HSPLLCLKCONFIG?AI8051U_CLOCK
   *DEL*:           00024FH   BYTE   INSEG    CODE           ?PR?DMA_UART_INILIZE?AI8051U_DMA
L251 LINKER/LOCATER V4.66.93.0                                                        03/28/2026  21:02:40  PAGE 10


   *DEL*:           0000B1H   BYTE   INSEG    CODE           ?PR?DMA_I2C_INILIZE?AI8051U_DMA
   *DEL*:           000063H   BYTE   INSEG    CODE           ?PR?DMA_ADC_INILIZE?AI8051U_DMA
   *DEL*:           0000BCH   BYTE   INSEG    CODE           ?PR?DMA_M2M_INILIZE?AI8051U_DMA
   *DEL*:           000070H   BYTE   INSEG    CODE           ?PR?DMA_LCM_INILIZE?AI8051U_DMA
   *DEL*:           0000FEH   BYTE   INSEG    CODE           ?PR?DMA_SPI_INILIZE?AI8051U_DMA
   *DEL*:           000013H   BYTE   INSEG    CODE           ?PR?DISABLEEEPROM?AI8051U_EEPROM
   *DEL*:           00001BH   BYTE   INSEG    CODE           ?PR?EEPROM_SECTORERASE?AI8051U_EEPROM
   *DEL*:           00005DH   BYTE   INSEG    CODE           ?PR?EEPROM_READ_N?AI8051U_EEPROM
   *DEL*:           00005DH   BYTE   INSEG    CODE           ?PR?EEPROM_WRITE_N?AI8051U_EEPROM
   *DEL*:           000015H   BYTE   INSEG    CODE           ?PR?EEPROM_TRIG?AI8051U_EEPROM
   *DEL*:           000006H   BYTE   UNIT     XDATA          ?XD?EEPROM_READ_N?AI8051U_EEPROM
   *DEL*:           000006H   BYTE   UNIT     XDATA          ?XD?EEPROM_WRITE_N?AI8051U_EEPROM
   *DEL*:           000057H   BYTE   INSEG    CODE           ?PR?EXT_INILIZE?AI8051U_EXTI
   *DEL*:           00004CH   BYTE   INSEG    CODE           ?PR?NVIC_DMA_ADC_INIT?AI8051U_NVIC
   *DEL*:           00004CH   BYTE   INSEG    CODE           ?PR?NVIC_DMA_M2M_INIT?AI8051U_NVIC
   *DEL*:           000047H   BYTE   INSEG    CODE           ?PR?NVIC_INT0_INIT?AI8051U_NVIC
   *DEL*:           000047H   BYTE   INSEG    CODE           ?PR?NVIC_INT1_INIT?AI8051U_NVIC
   *DEL*:           00001AH   BYTE   INSEG    CODE           ?PR?NVIC_INT2_INIT?AI8051U_NVIC
   *DEL*:           00001AH   BYTE   INSEG    CODE           ?PR?NVIC_INT3_INIT?AI8051U_NVIC
   *DEL*:           00004CH   BYTE   INSEG    CODE           ?PR?NVIC_DMA_SPI_INIT?AI8051U_NVIC
   *DEL*:           00001AH   BYTE   INSEG    CODE           ?PR?NVIC_INT4_INIT?AI8051U_NVIC
   *DEL*:           00001AH   BYTE   INSEG    CODE           ?PR?NVIC_TIMER2_INIT?AI8051U_NVIC
   *DEL*:           000082H   BYTE   INSEG    CODE           ?PR?NVIC_I2C_INIT?AI8051U_NVIC
   *DEL*:           00004CH   BYTE   INSEG    CODE           ?PR?NVIC_DMA_I2CR_INIT?AI8051U_NVIC
   *DEL*:           00004CH   BYTE   INSEG    CODE           ?PR?NVIC_DMA_I2CT_INIT?AI8051U_NVIC
   *DEL*:           00004CH   BYTE   INSEG    CODE           ?PR?NVIC_DMA_UART1_RX_INIT?AI8051U_NVIC
   *DEL*:           00004CH   BYTE   INSEG    CODE           ?PR?NVIC_DMA_UART2_RX_INIT?AI8051U_NVIC
   *DEL*:           00004CH   BYTE   INSEG    CODE           ?PR?NVIC_DMA_UART3_RX_INIT?AI8051U_NVIC
   *DEL*:           00004CH   BYTE   INSEG    CODE           ?PR?NVIC_DMA_UART1_TX_INIT?AI8051U_NVIC
   *DEL*:           00004CH   BYTE   INSEG    CODE           ?PR?NVIC_DMA_UART4_RX_INIT?AI8051U_NVIC
   *DEL*:           00004CH   BYTE   INSEG    CODE           ?PR?NVIC_DMA_UART2_TX_INIT?AI8051U_NVIC
   *DEL*:           00004CH   BYTE   INSEG    CODE           ?PR?NVIC_DMA_UART3_TX_INIT?AI8051U_NVIC
   *DEL*:           00004CH   BYTE   INSEG    CODE           ?PR?NVIC_DMA_UART4_TX_INIT?AI8051U_NVIC
   *DEL*:           000053H   BYTE   INSEG    CODE           ?PR?NVIC_CMP_INIT?AI8051U_NVIC
   *DEL*:           000046H   BYTE   INSEG    CODE           ?PR?NVIC_RTC_INIT?AI8051U_NVIC
   *DEL*:           00004DH   BYTE   INSEG    CODE           ?PR?NVIC_SPI_INIT?AI8051U_NVIC
   *DEL*:           000047H   BYTE   INSEG    CODE           ?PR?NVIC_UART1_INIT?AI8051U_NVIC
   *DEL*:           00004DH   BYTE   INSEG    CODE           ?PR?NVIC_UART2_INIT?AI8051U_NVIC
   *DEL*:           00004DH   BYTE   INSEG    CODE           ?PR?NVIC_UART3_INIT?AI8051U_NVIC
   *DEL*:           00004DH   BYTE   INSEG    CODE           ?PR?NVIC_UART4_INIT?AI8051U_NVIC
   *DEL*:           00017BH   BYTE   INSEG    CODE           ?PR?UPDATEPWM?AI8051U_PWM
   *DEL*:           000031H   BYTE   INSEG    CODE           ?PR?READPWMA?AI8051U_PWM
   *DEL*:           000031H   BYTE   INSEG    CODE           ?PR?READPWMB?AI8051U_PWM
   *DEL*:           000174H   BYTE   INSEG    CODE           ?PR?UPDATEHSPWM?AI8051U_PWM
   *DEL*:           000025H   BYTE   INSEG    CODE           ?PR?WRITEPWMA?AI8051U_PWM
   *DEL*:           000025H   BYTE   INSEG    CODE           ?PR?WRITEPWMB?AI8051U_PWM
   *DEL*:           00043AH   BYTE   INSEG    CODE           ?PR?HSPWM_CONFIGURATION?AI8051U_PWM
   *DEL*:           000007H   BYTE   UNIT     XDATA          ?XD?HSPWM_CONFIGURATION?AI8051U_PWM
   *DEL*:           000014H   BYTE   INSEG    CODE           ?PR?SPI_SETMODE?AI8051U_SPI
   *DEL*:           000032H   BYTE   INSEG    CODE           ?PR?SPI_READBYTE?AI8051U_SPI
   *DEL*:           000058H   BYTE   INSEG    CODE           ?PR?SPI_INIT?AI8051U_SPI
   *DEL*:           000063H   BYTE   INSEG    CODE           ?PR?SPI_WRITEBYTE?AI8051U_SPI
   *DEL*:           00029DH   BYTE   INSEG    CODE           ?PR?UART_CONFIGURATION?AI8051U_UART
   *DEL*:           000010H   BYTE   INSEG    CODE           ?PR?UART3_PUTBUF?AI8051U_UART
   *DEL*:           000010H   BYTE   INSEG    CODE           ?PR?UART4_PUTBUF?AI8051U_UART
   *DEL*:           000016H   BYTE   INSEG    CODE           ?PR?UART1_PUTSTR?AI8051U_UART
   *DEL*:           000016H   BYTE   INSEG    CODE           ?PR?UART3_PUTSTR?AI8051U_UART
   *DEL*:           000016H   BYTE   INSEG    CODE           ?PR?UART4_PUTSTR?AI8051U_UART
   *DEL*:           00000CH   BYTE   INSEG    CODE           ?PR?PUTCHAR?AI8051U_UART
   *DEL*:           000026H   BYTE   INSEG    CODE           ?PR?WDT_INILIZE?AI8051U_WDT
   *DEL*:           000004H   BYTE   INSEG    CODE           ?PR?FEEDING_DOG?AI8051U_WDT
   *DEL*:           000028H   BYTE   UNIT     XDATA          ?XT?PRINTF
   *DEL*:           000028H   BYTE   UNIT     XDATA          ?XT?SSCANF
   *DEL*:           000010H   BYTE   INSEG    CODE           ?PR?ISDIGIT?_?ISDIGIT
   *DEL*:           000014H   BYTE   INSEG    CODE           ?PR?ISSPACE?_?ISSPACE
L251 LINKER/LOCATER V4.66.93.0                                                        03/28/2026  21:02:40  PAGE 11


   *DEL*:           00000EH   BYTE   INSEG    CODE           ?PR?STRLEN?_?STRLEN
   *DEL*:           00001FH   BYTE   INSEG    CODE           ?PR?STRCHR?_?STRCHR
   *DEL*:           000035H   BYTE   INSEG    CODE           ?PR?STRSTR?STRSTR
   *DEL*:           000025H   BYTE   INSEG    CODE           ?PR?MEMCPY?_?MEMCPY



OVERLAY MAP OF MODULE:   .\OBJ_Out\LQ_STCAI8051_LIB (control)


FUNCTION/MODULE                              XDATA_GROUP
--> CALLED FUNCTION/MODULE                   START  STOP
========================================================
?C_C51STARTUP?1                              ----- -----

*** NEW ROOT *******************************

ADC_ISR_Handler/AI8051U_ADC_Isr              ----- -----

*** NEW ROOT *******************************

DMA_LCM_ISR_Handler/AI8051U_DMA_Isr          ----- -----

*** NEW ROOT *******************************

DMA_SPI_ISR_Handler/AI8051U_DMA_Isr          ----- -----

*** NEW ROOT *******************************

DMA_I2CR_ISR_Handler/AI8051U_DMA_Isr         ----- -----

*** NEW ROOT *******************************

DMA_I2CT_ISR_Handler/AI8051U_DMA_Isr         ----- -----

*** NEW ROOT *******************************

DMA_UART1RX_ISR_Handler/AI8051U_DMA_Isr      ----- -----

*** NEW ROOT *******************************

DMA_UART2RX_ISR_Handler/AI8051U_DMA_Isr      ----- -----

*** NEW ROOT *******************************

DMA_UART3RX_ISR_Handler/AI8051U_DMA_Isr      ----- -----

*** NEW ROOT *******************************

DMA_UART1TX_ISR_Handler/AI8051U_DMA_Isr      ----- -----

*** NEW ROOT *******************************

DMA_UART4RX_ISR_Handler/AI8051U_DMA_Isr      ----- -----

*** NEW ROOT *******************************

DMA_UART2TX_ISR_Handler/AI8051U_DMA_Isr      ----- -----

*** NEW ROOT *******************************

DMA_UART3TX_ISR_Handler/AI8051U_DMA_Isr      ----- -----

*** NEW ROOT *******************************

L251 LINKER/LOCATER V4.66.93.0                                                        03/28/2026  21:02:40  PAGE 12


DMA_ISR_Handler/AI8051U_DMA_Isr              ----- -----

*** NEW ROOT *******************************

DMA_UART4TX_ISR_Handler/AI8051U_DMA_Isr      ----- -----

*** NEW ROOT *******************************

DMA_ADC_ISR_Handler/AI8051U_DMA_Isr          ----- -----

*** NEW ROOT *******************************

DMA_M2M_ISR_Handler/AI8051U_DMA_Isr          ----- -----

*** NEW ROOT *******************************

INT0_ISR_Handler/AI8051U_Exti_Isr            ----- -----

*** NEW ROOT *******************************

INT1_ISR_Handler/AI8051U_Exti_Isr            ----- -----

*** NEW ROOT *******************************

INT2_ISR_Handler/AI8051U_Exti_Isr            ----- -----

*** NEW ROOT *******************************

INT3_ISR_Handler/AI8051U_Exti_Isr            ----- -----

*** NEW ROOT *******************************

INT4_ISR_Handler/AI8051U_Exti_Isr            ----- -----

*** NEW ROOT *******************************

P0INT_ISR_Handler/AI8051U_GPIO_Isr           ----- -----

*** NEW ROOT *******************************

P1INT_ISR_Handler/AI8051U_GPIO_Isr           ----- -----

*** NEW ROOT *******************************

PWMA_ISR_Handler/AI8051U_PWM_Isr             ----- -----

*** NEW ROOT *******************************

PWMB_ISR_Handler/AI8051U_PWM_Isr             ----- -----

*** NEW ROOT *******************************

SPI_ISR_Handler/AI8051U_SPI_Isr              ----- -----

*** NEW ROOT *******************************

Timer0_ISR_Handler/AI8051U_Timer_Isr         ----- -----
  +--> LED_Ctrl/LQ_GPIO_LED

LED_Ctrl/LQ_GPIO_LED                         ----- -----

*** NEW ROOT *******************************

Timer1_ISR_Handler/AI8051U_Timer_Isr         ----- -----
  +--> Ultima_Control/control
L251 LINKER/LOCATER V4.66.93.0                                                        03/28/2026  21:02:40  PAGE 13



Ultima_Control/control                       ----- -----
  +--> Dir_Control/control
  +--> Motor_Control/control

Dir_Control/control                          04FDH 0504H
  +--> Get_ADCResult/AI8051U_ADC
  +--> Calculate_Vertical/control
  +--> LQ_SPI_LSM60DSR_Read/LQ_LSM6DSR
  +--> Calculate_Weight_Mid/control
  +--> Angle_calculate/control
  +--> PlacePID_Control/control
  +--> angle_pid/control
  +--> range_protect/control
  +--> Motor_Ctrl/LQ_MotorServo

Get_ADCResult/AI8051U_ADC                    ----- -----

Calculate_Vertical/control                   0505H 050CH
  +--> FABS?_/FABS

FABS?_/FABS                                  ----- -----

LQ_SPI_LSM60DSR_Read/LQ_LSM6DSR              0505H 0524H
  +--> SPI_Read_buf/LQ_LSM6DSR

SPI_Read_buf/LQ_LSM6DSR                      ----- -----
  +--> LQ_SPI_Read/LQ_Soft_SPI

LQ_SPI_Read/LQ_Soft_SPI                      054CH 056DH
  +--> Soft_SPI_ReadWriteNbyte/LQ_Soft_SPI

Soft_SPI_ReadWriteNbyte/LQ_Soft_SPI          ----- -----

Calculate_Weight_Mid/control                 0505H 0514H

Angle_calculate/control                      ----- -----

PlacePID_Control/control                     0505H 0518H

angle_pid/control                            0505H 0534H

range_protect/control                        0505H 0514H

Motor_Ctrl/LQ_MotorServo                     ----- -----
  +--> UpdatePwmCh/AI8051U_PWM

UpdatePwmCh/AI8051U_PWM                      ----- -----

Motor_Control/control                        ----- -----
  +--> Read_Encoder/LQ_Encoder
  +--> PID_Realize/control
  +--> range_protect/control
  +--> Motor_Ctrl/LQ_MotorServo

Read_Encoder/LQ_Encoder                      ----- -----

PID_Realize/control                          04FDH 0518H

*** NEW ROOT *******************************

Timer2_ISR_Handler/AI8051U_Timer_Isr         ----- -----

*** NEW ROOT *******************************

L251 LINKER/LOCATER V4.66.93.0                                                        03/28/2026  21:02:40  PAGE 14


Timer3_ISR_Handler/AI8051U_Timer_Isr         ----- -----

*** NEW ROOT *******************************

Timer4_ISR_Handler/AI8051U_Timer_Isr         ----- -----

*** NEW ROOT *******************************

Timer11_ISR_Handler/AI8051U_Timer_Isr        ----- -----
  +--> key_scan/control

key_scan/control                             ----- -----
  +--> KEY_Read/LQ_KEY
  +--> delay_ms/AI8051U_Delay

KEY_Read/LQ_KEY                              ----- -----

delay_ms/AI8051U_Delay                       ----- -----

*** NEW ROOT *******************************

UART1_ISR_Handler/AI8051U_UART_Isr           ----- -----

*** NEW ROOT *******************************

UART3_ISR_Handler/AI8051U_UART_Isr           ----- -----
  +--> UpDate_SBUS/LQ_SBUS

UpDate_SBUS/LQ_SBUS                          ----- -----

*** NEW ROOT *******************************

UART4_ISR_Handler/AI8051U_UART_Isr           ----- -----
  +--> STRCPY?_/STRCPY?_

STRCPY?_/STRCPY?_                            ----- -----

*** NEW ROOT *******************************

?C_C51STARTUP                                ----- -----

*** NEW ROOT *******************************

?C_C51STARTUP?3                              ----- -----
  +--> main/main

main/main                                    ----- -----
  +--> System_Init/main
  +--> GPIO_LED_Init/LQ_GPIO_LED
  +--> OLED_Init/LQ_OLED096
  +--> ADC_Init/LQ_ADC
  +--> Timer_EncInit/LQ_Encoder
  +--> Motor_Init/LQ_MotorServo
  +--> TIM_Init_ms/LQ_TIMER
  +--> LQ_SPI_LSM60DSR_Init/LQ_LSM6DSR
  +--> SPRINTF/SPRINTF
  +--> OLED_P6x8Str/LQ_OLED096
  +--> delay_ms/AI8051U_Delay

System_Init/main                             ----- -----
  +--> PLL_Init/main

PLL_Init/main                                ----- -----

GPIO_LED_Init/LQ_GPIO_LED                    ----- -----
L251 LINKER/LOCATER V4.66.93.0                                                        03/28/2026  21:02:40  PAGE 15


  +--> GPIO_InitConfig/LQ_GPIO

GPIO_InitConfig/LQ_GPIO                      ----- -----

OLED_Init/LQ_OLED096                         0547H 0549H
  +--> GPIO_Inilize/AI8051U_GPIO
  +--> delay_ms/AI8051U_Delay
  +--> OLED_WrCmd/LQ_OLED096
  +--> OLED_CLS/LQ_OLED096
  +--> OLED_Set_Pos/LQ_OLED096

GPIO_Inilize/AI8051U_GPIO                    ----- -----

OLED_WrCmd/LQ_OLED096                        ----- -----

OLED_CLS/LQ_OLED096                          ----- -----
  +--> OLED_WrCmd/LQ_OLED096
  +--> OLED_WrDat/LQ_OLED096

OLED_WrDat/LQ_OLED096                        ----- -----

OLED_Set_Pos/LQ_OLED096                      ----- -----
  +--> OLED_WrCmd/LQ_OLED096

ADC_Init/LQ_ADC                              0547H 054BH
  +--> ADC_Inilize/AI8051U_ADC
  +--> ADC_PowerControl/AI8051U_ADC
  +--> NVIC_ADC_Init/AI8051U_NVIC

ADC_Inilize/AI8051U_ADC                      ----- -----

ADC_PowerControl/AI8051U_ADC                 ----- -----

NVIC_ADC_Init/AI8051U_NVIC                   ----- -----

Timer_EncInit/LQ_Encoder                     ----- -----

Motor_Init/LQ_MotorServo                     0547H 054FH
  +--> ?C?SLDIV/?C?SLDIV
  +--> PWM_Configuration/AI8051U_PWM
  +--> NVIC_PWM_Init/AI8051U_NVIC
  +--> UpdatePwmCh/AI8051U_PWM

?C?SLDIV/?C?SLDIV                            ----- -----
  +--> ?C?ULIDIV/?C?ULDIV

?C?ULIDIV/?C?ULDIV                           ----- -----

PWM_Configuration/AI8051U_PWM                ----- -----

NVIC_PWM_Init/AI8051U_NVIC                   ----- -----

TIM_Init_ms/LQ_TIMER                         ----- -----
  +--> TIM_Init/LQ_TIMER

TIM_Init/LQ_TIMER                            0547H 054DH
  +--> ?C?ULIDIV/?C?ULDIV
  +--> Timer_Inilize/AI8051U_Timer
  +--> NVIC_Timer0_Init/AI8051U_NVIC
  +--> NVIC_Timer1_Init/AI8051U_NVIC
  +--> NVIC_Timer3_Init/AI8051U_NVIC
  +--> NVIC_Timer4_Init/AI8051U_NVIC
  +--> NVIC_Timer11_Init/AI8051U_NVIC

Timer_Inilize/AI8051U_Timer                  ----- -----
L251 LINKER/LOCATER V4.66.93.0                                                        03/28/2026  21:02:40  PAGE 16



NVIC_Timer0_Init/AI8051U_NVIC                ----- -----

NVIC_Timer1_Init/AI8051U_NVIC                ----- -----

NVIC_Timer3_Init/AI8051U_NVIC                ----- -----

NVIC_Timer4_Init/AI8051U_NVIC                ----- -----

NVIC_Timer11_Init/AI8051U_NVIC               ----- -----

LQ_SPI_LSM60DSR_Init/LQ_LSM6DSR              ----- -----
  +--> Soft_SPI_Init/LQ_Soft_SPI
  +--> SPI_Write_reg/LQ_LSM6DSR
  +--> delay_ms/AI8051U_Delay
  +--> Gyro_LSM6DSR_LQ9AGMV_Check/LQ_LSM6DSR
  +--> SPI_Mag_Write_Reg/LQ_LSM6DSR

Soft_SPI_Init/LQ_Soft_SPI                    0547H 0549H
  +--> GPIO_Inilize/AI8051U_GPIO

SPI_Write_reg/LQ_LSM6DSR                     ----- -----
  +--> LQ_SPI_Write/LQ_Soft_SPI

LQ_SPI_Write/LQ_Soft_SPI                     054BH 054CH
  +--> Soft_SPI_ReadWriteNbyte/LQ_Soft_SPI

Gyro_LSM6DSR_LQ9AGMV_Check/LQ_LSM6DSR        ----- -----
  +--> SPI_Write_reg/LQ_LSM6DSR
  +--> LQ_SPI_LSM60DSR_GetID/LQ_LSM6DSR
  +--> delay_ms/AI8051U_Delay
  +--> SPI_Mag_Read_Reg/LQ_LSM6DSR

LQ_SPI_LSM60DSR_GetID/LQ_LSM6DSR             0547H 0547H
  +--> LQ_SPI_Read/LQ_Soft_SPI

SPI_Mag_Read_Reg/LQ_LSM6DSR                  ----- -----
  +--> SPI_Write_reg/LQ_LSM6DSR
  +--> delay_us/AI8051U_Delay
  +--> SPI_Read_reg/LQ_LSM6DSR

delay_us/AI8051U_Delay                       ----- -----

SPI_Read_reg/LQ_LSM6DSR                      054BH 054BH
  +--> LQ_SPI_Read/LQ_Soft_SPI

SPI_Mag_Write_Reg/LQ_LSM6DSR                 0547H 054AH
  +--> SPI_Write_reg/LQ_LSM6DSR
  +--> delay_us/AI8051U_Delay
  +--> SPI_Read_reg/LQ_LSM6DSR

SPRINTF/SPRINTF                              0547H 056EH
  +--> OUT/SPRINTF

OUT/SPRINTF                                  ----- -----
  +--> PUTCH/SPRINTF

PUTCH/SPRINTF                                ----- -----

OLED_P6x8Str/LQ_OLED096                      0547H 054BH
  +--> OLED_Set_Pos/LQ_OLED096
  +--> OLED_WrDat/LQ_OLED096

*** NEW ROOT *******************************

L251 LINKER/LOCATER V4.66.93.0                                                        03/28/2026  21:02:40  PAGE 17


?C_C51STARTUP?2                              ----- -----



PUBLIC SYMBOLS OF MODULE:  .\OBJ_Out\LQ_STCAI8051_LIB (control)


      VALUE       CLASS    TYPE      PUBLIC SYMBOL NAME
      =================================================
      00010505H   XDATA    BYTE      ?angle_pid?BYTE
      00FF18C3H   CODE     ---       ?C?BMOVEPP
      00FF18C1H   CODE     ---       ?C?BMOVEPP8
      00FF059FH   CODE     NEAR LAB  ?C?CASTD
      00FF1654H   CODE     NEAR LAB  ?C?CASTF
      000000FFH   NUMBER   ---       ?C?CODESEG
      00FF055CH   CODE     NEAR LAB  ?C?DCASTC
      00FF05FFH   CODE     NEAR LAB  ?C?DCASTF
      00FF0557H   CODE     NEAR LAB  ?C?DCASTI
      00FF0552H   CODE     NEAR LAB  ?C?DCASTL
      00FF1024H   CODE     ---       ?C?DP2SERIES
      00FF0225H   CODE     ---       ?C?DPADD
      00FF11F1H   CODE     NEAR LAB  ?C?DPATOF
      00FF04E5H   CODE     ---       ?C?DPCMP
      00FF04E3H   CODE     ---       ?C?DPCMP3
      00FF1087H   CODE     ---       ?C?DPCONVERT
      00FF0444H   CODE     ---       ?C?DPDIV
      00FF080AH   CODE     ---       ?C?DPGETOPN2
      00FF0334H   CODE     ---       ?C?DPMUL
      00FF0855H   CODE     ---       ?C?DPNANRESULT
      00FF0544H   CODE     ---       ?C?DPNEG
      00FF0861H   CODE     ---       ?C?DPOVERFLOW
      00FF082DH   CODE     ---       ?C?DPRESULT
      00FF0846H   CODE     ---       ?C?DPRESULT2
      00FF11AEH   CODE     ---       ?C?DPROUND
      00FF102FH   CODE     ---       ?C?DPSERIES
      00FF0221H   CODE     ---       ?C?DPSUB
      00FF085CH   CODE     ---       ?C?DPUNDERFLOW
      00FF1358H   CODE     ---       ?C?DTNPWR
      00FF1765H   CODE     NEAR LAB  ?C?FCASTC
      00FF0641H   CODE     NEAR LAB  ?C?FCASTD
      00FF1760H   CODE     NEAR LAB  ?C?FCASTI
      00FF175BH   CODE     NEAR LAB  ?C?FCASTL
      00FF1435H   CODE     ---       ?C?FPADD
      00FF1691H   CODE     NEAR LAB  ?C?FPATOF
      00FF1610H   CODE     ---       ?C?FPCMP
      00FF160EH   CODE     ---       ?C?FPCMP3
      00FF158DH   CODE     ---       ?C?FPDIV
      00FF13DEH   CODE     ---       ?C?FPGETOPN2
      00FF14EDH   CODE     ---       ?C?FPMUL
      00FF141BH   CODE     ---       ?C?FPNANRESULT
      00FF174DH   CODE     ---       ?C?FPNEG
      00FF1423H   CODE     ---       ?C?FPOVERFLOW
      00FF13F7H   CODE     ---       ?C?FPRESULT
      00FF140DH   CODE     ---       ?C?FPRESULT2
      00FF1432H   CODE     ---       ?C?FPSUB
      00FF1420H   CODE     ---       ?C?FPUNDERFLOW
      00FF17C8H   CODE     ---       ?C?FTNPWR
      00FF5468H   CODE     ---       ?C?INITHDATA
      00FF6C0BH   HCONST   WORD      ?C?INITHDATA_END
      00FF1831H   CODE     ---       ?C?LIMUL
      00FF089CH   CODE     ---       ?C?PRNFMT
      00FF0D06H   CODE     NEAR LAB  ?C?SCANFP
      00FF17FFH   CODE     ---       ?C?SIDIV
      00FF188DH   CODE     NEAR LAB  ?C?SLDIV
      00FF0000H   CODE     ---       ?C?STARTUP
L251 LINKER/LOCATER V4.66.93.0                                                        03/28/2026  21:02:40  PAGE 18


      00FF183CH   CODE     NEAR LAB  ?C?ULDIV
      00FF183AH   CODE     NEAR LAB  ?C?ULIDIV
      00000001H   NUMBER   ---       ?C?XDATASEG
      00FF0000H   CODE     ---       ?C_STARTUP
*DEL*:1FFFFFFAH   XDATA    BYTE      ?ccd_binaryzation?BYTE
*DEL*:1FFFFFFCH   XDATA    BYTE      ?EEPROM_read_n?BYTE
*DEL*:1FFFFFFCH   XDATA    BYTE      ?EEPROM_write_n?BYTE
*DEL*:1FFFFFFCH   XDATA    BYTE      ?Get_DoubleData?BYTE
*DEL*:1FFFFFFCH   XDATA    BYTE      ?Get_IntData?BYTE
*DEL*:1FFFFFFCH   XDATA    BYTE      ?Get_Mag_data?BYTE
*DEL*:00000000H.0 BIT      BIT       ?GPIO_WritePin?BIT
*DEL*:1FFFFFFCH   XDATA    BYTE      ?IAP_Read_Buff?BYTE
*DEL*:1FFFFFFCH   XDATA    BYTE      ?IAP_Read_nByte?BYTE
*DEL*:1FFFFFFCH   XDATA    BYTE      ?IAP_Write_Buff?BYTE
*DEL*:1FFFFFFCH   XDATA    BYTE      ?IAP_Write_nByte?BYTE
*DEL*:1FFFFFFCH   XDATA    BYTE      ?LQ_IIC_LSM60DSR_Read?BYTE
      00010501H   XDATA    BYTE      ?LQ_SPI_LSM60DSR_Read?BYTE
      000104F9H   XDATA    BYTE      ?PID_Realize?BYTE
      00010501H   XDATA    BYTE      ?PlacePID_Control?BYTE
*DEL*:00000028H   XDATA    ---       ?printf?BYTE
      000104FDH   XDATA    BYTE      ?range_protect?BYTE
      0001056FH   XDATA    ---       ?sprintf?BYTE
*DEL*:00000028H   XDATA    ---       ?sscanf?BYTE
      000101ADH   XDATA    INT       acc_X
      000101AFH   XDATA    INT       acc_Y
      000101B1H   XDATA    INT       acc_Z
*SFR* 000000BCH   DATA     BYTE      ADC_CONTR
*DEL*:00000000H   CODE     ---       adc_filter
*SFR* 000000BCH.5 DATA     BIT       ADC_FLAG
      00FF53EEH   CODE     ---       ADC_Inilize
      00FF5690H   CODE     ---       ADC_Init
      00FF000EH   CODE     ---       ADC_ISR_Handler
*SFR* 000000BCH.7 DATA     BIT       ADC_POWER
      00FF5BC5H   CODE     ---       ADC_PowerControl
*SFR* 000000BDH   DATA     BYTE      ADC_RES
*SFR* 000000BEH   DATA     BYTE      ADC_RESL
*SFR* 000000BCH.6 DATA     BIT       ADC_START
*SFR* 000000DEH   DATA     BYTE      ADCCFG
      00FF4975H   CODE     ---       Angle_calculate
      00010201H   XDATA    DOUBLE    angle_delta
      000101BBH   XDATA    DOUBLE    Angle_gyro_z
      00FF3F3AH   CODE     ---       angle_pid
*SFR* 000000EFH   DATA     BYTE      AUXINTIF
*SFR* 0000008EH   DATA     BYTE      AUXR
*SFR* 00000097H   DATA     BYTE      AUXR2
      00000022H.6 BIT      BIT       B_SPI_Busy
      00000022H.3 BIT      BIT       B_ULinRX1_Flag
      00000022H.4 BIT      BIT       B_ULinRX2_Flag
      00010612H   XDATA    INT       ben_panduan
*DEL*:00000000H   CODE     ---       Bin_CCD_Filter
*DEL*:00000000H   CODE     ---       BLmotor_Ctrl
*DEL*:00000000H   CODE     ---       BLmotor_Init
*DEL*:00000000H   CODE     ---       Calculate_Error
      00FF4E1DH   CODE     ---       Calculate_Vertical
      00FF4521H   CODE     ---       Calculate_Weight_Mid
*SFR* 000000F1H   DATA     BYTE      CANICR
      0001047CH   XDATA    ---       CCD1_Bin
*DEL*:00000000H   CODE     ---       CCD1_Init
*DEL*:00000000H   CODE     ---       ccd_binaryzation
*DEL*:00000000H   CODE     ---       CCD_Collect
*DEL*:00000000H   CODE     ---       CCD_Delayus
*DEL*:00000000H   CODE     ---       ccd_get_threshold
      000101C3H   XDATA    INT       charge_flag
      00010140H   XDATA    INT       chu
*SFR* 000000EAH   DATA     BYTE      CKCON
L251 LINKER/LOCATER V4.66.93.0                                                        03/28/2026  21:02:40  PAGE 19


*SFR* 000000C1H.4 DATA     BIT       CLR_WDT
*SFR* 000000E6H   DATA     BYTE      CMPCR1
*SFR* 000000E7H   DATA     BYTE      CMPCR2
      00010603H   XDATA    ---       COM1
      00010608H   XDATA    ---       COM3
      0001060DH   XDATA    ---       COM4
*SFR* 000000CEH.2 DATA     BIT       CPHA
*SFR* 000000CEH.3 DATA     BIT       CPOL
      000101D1H   XDATA    DOUBLE    current_angle
      00FF5B4DH   CODE     ---       delay_ms
      00FF5B8EH   CODE     ---       delay_us
      000100FAH   XDATA    DOUBLE    delta_L
      00010108H   XDATA    DOUBLE    delta_R
      00FF18EAH   CODE     ---       Dir_Control
*DEL*:00000000H   CODE     ---       DisableEEPROM
*DEL*:00000000H   CODE     ---       DMA_ADC_Inilize
      00FF5AC6H   CODE     ---       DMA_ADC_ISR_Handler
*DEL*:00000000H   CODE     ---       DMA_I2C_Inilize
      00FF5810H   CODE     ---       DMA_I2CR_ISR_Handler
      00FF583FH   CODE     ---       DMA_I2CT_ISR_Handler
      00FF425AH   CODE     ---       DMA_ISR_Handler
*DEL*:00000000H   CODE     ---       DMA_LCM_Inilize
      00FF532EH   CODE     ---       DMA_LCM_ISR_Handler
*DEL*:00000000H   CODE     ---       DMA_M2M_Inilize
      00FF59E6H   CODE     ---       DMA_M2M_ISR_Handler
*DEL*:00000000H   CODE     ---       DMA_SPI_Inilize
      00FF552EH   CODE     ---       DMA_SPI_ISR_Handler
      00FF586EH   CODE     ---       DMA_UART1RX_ISR_Handler
      00FF58FBH   CODE     ---       DMA_UART1TX_ISR_Handler
      00FF589DH   CODE     ---       DMA_UART2RX_ISR_Handler
      00FF5959H   CODE     ---       DMA_UART2TX_ISR_Handler
      00FF58CCH   CODE     ---       DMA_UART3RX_ISR_Handler
      00FF5988H   CODE     ---       DMA_UART3TX_ISR_Handler
      00FF592AH   CODE     ---       DMA_UART4RX_ISR_Handler
      00FF59B7H   CODE     ---       DMA_UART4TX_ISR_Handler
*DEL*:00000000H   CODE     ---       DMA_UART_Inilize
      0001022BH   XDATA    ---       DMA_URT1_Buf
      000102ABH   XDATA    ---       DMA_URX1_Buf
      00000021H.7 BIT      BIT       DmaADCFlag
      00000021H.2 BIT      BIT       DmaI2CRFlag
      00000021H.3 BIT      BIT       DmaI2CTFlag
*SFR* 000000EDH   DATA     BYTE      DMAIR
      00000021H.5 BIT      BIT       DmaLcmFlag
      00000022H.0 BIT      BIT       DmaM2MFlag
      00000020H.0 BIT      BIT       DmaRx1Flag
      00000020H.1 BIT      BIT       DmaRx2Flag
      00000020H.2 BIT      BIT       DmaRx3Flag
      00000020H.4 BIT      BIT       DmaRx4Flag
      00000020H.3 BIT      BIT       DmaTx1Flag
      00000020H.5 BIT      BIT       DmaTx2Flag
      00000020H.6 BIT      BIT       DmaTx3Flag
      00000020H.7 BIT      BIT       DmaTx4Flag
*SFR* 000000CEH.5 DATA     BIT       DORD
*SFR* 000000A8H.7 DATA     BIT       EA
*SFR* 000000A8H.5 DATA     BIT       EADC
*SFR* 000000BAH.7 DATA     BIT       EAXFR
*DEL*:00000000H   CODE     ---       EEPROM_read_n
*DEL*:00000000H   CODE     ---       EEPROM_SectorErase
*DEL*:00000000H   CODE     ---       EEPROM_Trig
*DEL*:00000000H   CODE     ---       EEPROM_write_n
      00010142H   XDATA    DOUBLE    eleAdd
      000101D9H   XDATA    DOUBLE    elemid
      000101C9H   XDATA    DOUBLE    eleOut
      000101B3H   XDATA    DOUBLE    eleSub
      000100F2H   XDATA    DOUBLE    eleValue
L251 LINKER/LOCATER V4.66.93.0                                                        03/28/2026  21:02:40  PAGE 20


*SFR* 000000C1H.5 DATA     BIT       EN_WDT
      0001005CH   XDATA    DOUBLE    encoder_L
      0001006CH   XDATA    DOUBLE    encoder_R
*SFR* 000000A8H.4 DATA     BIT       ES
*SFR* 000000AFH.0 DATA     BIT       ES2
*SFR* 000000AFH.3 DATA     BIT       ES3
*SFR* 000000AFH.4 DATA     BIT       ES4
*SFR* 000000AFH.1 DATA     BIT       ESPI
*SFR* 000000A8H.1 DATA     BIT       ET0
*SFR* 000000A8H.3 DATA     BIT       ET1
*SFR* 000000AFH.2 DATA     BIT       ET2
*SFR* 000000AFH.5 DATA     BIT       ET3
*SFR* 000000AFH.6 DATA     BIT       ET4
*SFR* 000000A8H.0 DATA     BIT       EX0
*SFR* 000000A8H.2 DATA     BIT       EX1
*SFR* 0000008FH.4 DATA     BIT       EX2
*SFR* 0000008FH.5 DATA     BIT       EX3
*SFR* 0000008FH.6 DATA     BIT       EX4
      00FF0787H   CODE     ---       exp?_
*DEL*:00000000H   CODE     ---       Ext_Inilize
*DEL*:00000000H   CODE     ---       Exti_Init
*SFR* 000000D0H.5 DATA     BIT       F0
      00FF5BF4H   HCONST   ---       F14x16
      00FF5EE8H   HCONST   ---       F14x16_Idx
      00FF5F1FH   HCONST   ---       F6x8
      00FF6147H   HCONST   ---       F8X16
      00FF06E6H   CODE     NEAR LAB  fabs?_
*DEL*:00000000H   CODE     ---       Feeding_Dog
      000100AEH   XDATA    INT       flag_ben
      00FF538FH   CODE     ---       Get_ADCResult
*DEL*:00000000H   CODE     ---       Get_DoubleData
*DEL*:00000000H   CODE     ---       Get_IntData
*DEL*:00000000H   CODE     ---       Get_Mag_data
*DEL*:00000000H   CODE     ---       Get_Speed_By_Error
      00FF3AC3H   CODE     ---       GPIO_Inilize
      00FF2787H   CODE     ---       GPIO_InitConfig
*DEL*:00000000H   CODE     ---       GPIO_INT_InitE
*DEL*:00000000H   CODE     ---       GPIO_KEY_Init
      00FF5B64H   CODE     ---       GPIO_LED_Init
*DEL*:00000000H   CODE     ---       GPIO_PxINT_Init
*DEL*:00000000H   CODE     ---       GPIO_Read_Pin
*DEL*:00000000H   CODE     ---       GPIO_ReadPin
*DEL*:00000000H   CODE     ---       GPIO_WritePin
      000103F9H   XDATA    BYTE      GPS_buf
      000103FBH   XDATA    ---       GPS_ReadBuff
      00FF5268H   CODE     ---       Gyro_LSM6DSR_LQ9AGMV_Check
      00010213H   XDATA    INT       gyro_X
      00010215H   XDATA    INT       gyro_Y
      0001021FH   XDATA    INT       gyro_Z
      0001007EH   XDATA    FLOAT     Gyroz
      0001019CH   XDATA    DOUBLE    High_Speed
*DEL*:00000000H   CODE     ---       HIRCClkConfig
*DEL*:00000000H   CODE     ---       HSPI_Init
*DEL*:00000000H   CODE     ---       HSPllClkConfig
*DEL*:00000000H   CODE     ---       HSPWM_Configuration
      00FF5BD3H   CODE     ---       I2C_Delay_2us
*SFR* 000000F6H   DATA     BYTE      IAP_ADDRE
*SFR* 000000C3H   DATA     BYTE      IAP_ADDRH
*SFR* 000000C4H   DATA     BYTE      IAP_ADDRL
*SFR* 000000C5H   DATA     BYTE      IAP_CMD
*SFR* 000000C7H   DATA     BYTE      IAP_CONTR
*SFR* 000000C2H   DATA     BYTE      IAP_DATA
*DEL*:00000000H   CODE     ---       IAP_Erase_Page
*DEL*:00000000H   CODE     ---       IAP_Read_Buff
*DEL*:00000000H   CODE     ---       IAP_Read_Byte
L251 LINKER/LOCATER V4.66.93.0                                                        03/28/2026  21:02:40  PAGE 21


*DEL*:00000000H   CODE     ---       IAP_Read_nByte
*DEL*:00000000H   CODE     ---       IAP_Read_sByte
*DEL*:00000000H   CODE     ---       IAP_Read_u16Data
*SFR* 000000F5H   DATA     BYTE      IAP_TPS
*SFR* 000000C6H   DATA     BYTE      IAP_TRIG
*DEL*:00000000H   CODE     ---       IAP_Write_Buff
*DEL*:00000000H   CODE     ---       IAP_Write_Byte
*DEL*:00000000H   CODE     ---       IAP_Write_nByte
*DEL*:00000000H   CODE     ---       IAP_Write_u16Data
*SFR* 000000C7H.7 DATA     BIT       IAPEN
*SFR* 000000C1H.3 DATA     BIT       IDL_WDT
*SFR* 000000A8H   DATA     BYTE      IE
*SFR* 00000088H.1 DATA     BIT       IE0
*SFR* 00000088H.3 DATA     BIT       IE1
*SFR* 000000AFH   DATA     BYTE      IE2
*DEL*:00000000H   CODE     ---       IIC_Ack
      00FF001EH   CODE     ---       iic_delay
*DEL*:00000000H   CODE     ---       IIC_NAck
*DEL*:00000000H   CODE     ---       IIC_ReadByte
*DEL*:00000000H   CODE     ---       IIC_ReadByteFromSlave
*DEL*:00000000H   CODE     ---       IIC_ReadMultByteFromSlave
*DEL*:00000000H   CODE     ---       IIC_SendByte
*DEL*:00000000H   CODE     ---       IIC_Start
*DEL*:00000000H   CODE     ---       IIC_Stop
*DEL*:00000000H   CODE     ---       IIC_WaitAck
*DEL*:00000000H   CODE     ---       IIC_WriteByteToSlave
*DEL*:00000000H   CODE     ---       IIC_WriteMultByteToSlave
      0001016AH   XDATA    ---       Inductor
      00FF0012H   CODE     ---       INT0_ISR_Handler
      00FF0019H   CODE     ---       INT1_ISR_Handler
      00FF001AH   CODE     ---       INT2_ISR_Handler
*SFR* 000000EFH.4 DATA     BIT       INT2IF
      00FF0021H   CODE     ---       INT3_ISR_Handler
*SFR* 000000EFH.5 DATA     BIT       INT3IF
      00FF0022H   CODE     ---       INT4_ISR_Handler
*SFR* 000000EFH.6 DATA     BIT       INT4IF
*SFR* 0000008FH   DATA     BYTE      INTCLKO
*SFR* 000000B8H   DATA     BYTE      IP
*SFR* 000000B5H   DATA     BYTE      IP2
*SFR* 000000B6H   DATA     BYTE      IP2H
*SFR* 000000DFH   DATA     BYTE      IP3
*SFR* 000000EEH   DATA     BYTE      IP3H
*SFR* 000000B7H   DATA     BYTE      IPH
*DEL*:00000000H   CODE     ---       IRC32KClkConfig
*SFR* 0000009DH   DATA     BYTE      IRCBAND
*DEL*:00000000H   CODE     ---       isdigit?_
*DEL*:00000000H   CODE     ---       isspace?_
*SFR* 00000088H.0 DATA     BIT       IT0
*SFR* 00000088H.2 DATA     BIT       IT1
      00010074H   XDATA    DOUBLE    k1
      0001018AH   XDATA    DOUBLE    kd
      00010162H   XDATA    INT       key_flag
      00FF56CFH   CODE     ---       KEY_Read
*DEL*:00000000H   CODE     ---       KEY_Read_All
      00FF2FDBH   CODE     ---       key_scan
      00010194H   XDATA    DOUBLE    ki
      000101A5H   XDATA    DOUBLE    kp
      00010166H   XDATA    INT       L
      00010229H   XDATA    INT       L2
      000100A2H   XDATA    ---       L2_md
      00010221H   XDATA    ---       L_md
      0001008AH   XDATA    DOUBLE    last_encoder_L
      0001009AH   XDATA    DOUBLE    last_encoder_R
      00010615H   XDATA    INT       last_M
*SFR* 000000B0H.4 DATA     BIT       LCD_CS
L251 LINKER/LOCATER V4.66.93.0                                                        03/28/2026  21:02:40  PAGE 22


      00010617H   XDATA    WORD      LCM_Cnt
      00FF54E6H   CODE     ---       LED_Ctrl
      000100B0H   XDATA    INT       led_flag
      00010104H   XDATA    INT       left_0
      00010106H   XDATA    INT       left_1
      0001015AH   XDATA    DOUBLE    Left_High_Speed
      0001000AH   XDATA    ---       Left_MOTOR
      00010092H   XDATA    DOUBLE    LEFT_MOTOR_Duty
      00010110H   XDATA    ---       Left_MOTOR_PID
*SFR* 000000F9H   DATA     BYTE      LINICR
      00FF6737H   HCONST   ---       longqiu104x64
*DEL*:00000000H   CODE     ---       LQ_I2C_Read
*DEL*:00000000H   CODE     ---       LQ_I2C_Write
*DEL*:00000000H   CODE     ---       LQ_IIC_LSM60DSR_GetID
*DEL*:00000000H   CODE     ---       LQ_IIC_LSM60DSR_Init
*DEL*:00000000H   CODE     ---       LQ_IIC_LSM60DSR_Read
      00FF006EH   CODE     ---       LQ_SPI_LSM60DSR_GetID
      00FF4888H   CODE     ---       LQ_SPI_LSM60DSR_Init
      00FF4BF7H   CODE     ---       LQ_SPI_LSM60DSR_Read
      00FF549CH   CODE     ---       LQ_SPI_Read
      00FF002EH   CODE     ---       LQ_SPI_Write
      00000022H.5 BIT      BIT       LSM60D_9AGM_FLAG
      00010168H   XDATA    INT       M
      00010008H   XDATA    INT       M2
      00010209H   XDATA    DOUBLE    M_K
      00010000H   XDATA    ---       M_md
      00FF2BFCH   CODE     ---       main
*DEL*:00000000H   CODE     ---       Median_Average_Filter
*DEL*:00000000H   CODE     ---       memcpy?_
      00FF3598H   CODE     ---       Motor_Control
      00FF570AH   CODE     ---       Motor_Ctrl
      00FF4CB4H   CODE     ---       Motor_Init
*SFR* 000000CEH.4 DATA     BIT       MSTR
*DEL*:00000000H   CODE     ---       my_strtod
*SFR* 000000E6H.4 DATA     BIT       NIE
      000103F8H   XDATA    BYTE      num3
      00FF5603H   CODE     ---       NVIC_ADC_Init
*DEL*:00000000H   CODE     ---       NVIC_CMP_Init
*DEL*:00000000H   CODE     ---       NVIC_DMA_ADC_Init
*DEL*:00000000H   CODE     ---       NVIC_DMA_I2CR_Init
*DEL*:00000000H   CODE     ---       NVIC_DMA_I2CT_Init
*DEL*:00000000H   CODE     ---       NVIC_DMA_M2M_Init
*DEL*:00000000H   CODE     ---       NVIC_DMA_SPI_Init
*DEL*:00000000H   CODE     ---       NVIC_DMA_UART1_Rx_Init
*DEL*:00000000H   CODE     ---       NVIC_DMA_UART1_Tx_Init
*DEL*:00000000H   CODE     ---       NVIC_DMA_UART2_Rx_Init
*DEL*:00000000H   CODE     ---       NVIC_DMA_UART2_Tx_Init
*DEL*:00000000H   CODE     ---       NVIC_DMA_UART3_Rx_Init
*DEL*:00000000H   CODE     ---       NVIC_DMA_UART3_Tx_Init
*DEL*:00000000H   CODE     ---       NVIC_DMA_UART4_Rx_Init
*DEL*:00000000H   CODE     ---       NVIC_DMA_UART4_Tx_Init
*DEL*:00000000H   CODE     ---       NVIC_I2C_Init
*DEL*:00000000H   CODE     ---       NVIC_INT0_Init
*DEL*:00000000H   CODE     ---       NVIC_INT1_Init
*DEL*:00000000H   CODE     ---       NVIC_INT2_Init
*DEL*:00000000H   CODE     ---       NVIC_INT3_Init
*DEL*:00000000H   CODE     ---       NVIC_INT4_Init
      00FF4F6DH   CODE     ---       NVIC_PWM_Init
*DEL*:00000000H   CODE     ---       NVIC_PxINT_Init
*DEL*:00000000H   CODE     ---       NVIC_RTC_Init
*DEL*:00000000H   CODE     ---       NVIC_SPI_Init
      00FF5575H   CODE     ---       NVIC_Timer0_Init
      00FF57DFH   CODE     ---       NVIC_Timer11_Init
      00FF55BCH   CODE     ---       NVIC_Timer1_Init
*DEL*:00000000H   CODE     ---       NVIC_Timer2_Init
L251 LINKER/LOCATER V4.66.93.0                                                        03/28/2026  21:02:40  PAGE 23


      00FF5B01H   CODE     ---       NVIC_Timer3_Init
      00FF5B1BH   CODE     ---       NVIC_Timer4_Init
*DEL*:00000000H   CODE     ---       NVIC_UART1_Init
*DEL*:00000000H   CODE     ---       NVIC_UART2_Init
*DEL*:00000000H   CODE     ---       NVIC_UART3_Init
*DEL*:00000000H   CODE     ---       NVIC_UART4_Init
*DEL*:00000000H   CODE     ---       OLED_ClrDot
      00FF5779H   CODE     ---       OLED_CLS
*DEL*:00000000H   CODE     ---       OLED_Fill
      00FF4A5AH   CODE     ---       OLED_Init
*DEL*:00000000H   CODE     ---       OLED_P14x16Str
      00FF4D6DH   CODE     ---       OLED_P6x8Str
*DEL*:00000000H   CODE     ---       OLED_P8x16Str
*DEL*:00000000H   CODE     ---       OLED_PutPixel
*DEL*:00000000H   CODE     ---       OLED_Rectangle
*DEL*:00000000H   CODE     ---       OLED_Road
      00FF5A5FH   CODE     ---       OLED_Set_Pos
*DEL*:00000000H   CODE     ---       OLED_Show_BMP
*DEL*:00000000H   CODE     ---       OLED_Show_Frame80
*DEL*:00000000H   CODE     ---       OLED_Show_Frame94
*DEL*:00000000H   CODE     ---       OLED_Show_LQLogo
      00FF5A15H   CODE     ---       OLED_WrCmd
      00FF5A3AH   CODE     ---       OLED_WrDat
      000101C7H   XDATA    INT       out_ben
      0001007CH   XDATA    INT       out_ben_turn
*SFR* 00000080H   DATA     BYTE      P0
*SFR* 00000080H.3 DATA     BIT       P03
*SFR* 00000080H.5 DATA     BIT       P05
*SFR* 00000080H.7 DATA     BIT       P07
      00FF5AE7H   CODE     ---       P0INT_ISR_Handler
*SFR* 00000094H   DATA     BYTE      P0M0
*SFR* 00000093H   DATA     BYTE      P0M1
*SFR* 00000090H   DATA     BYTE      P1
*SFR* 00000090H.3 DATA     BIT       P13
*SFR* 00000090H.5 DATA     BIT       P15
      00FF5AA4H   CODE     ---       P1INT_ISR_Handler
*SFR* 00000092H   DATA     BYTE      P1M0
*SFR* 00000091H   DATA     BYTE      P1M1
*SFR* 000000A0H   DATA     BYTE      P2
*SFR* 000000A0H.1 DATA     BIT       P21
*SFR* 000000A0H.3 DATA     BIT       P23
*SFR* 000000A0H.4 DATA     BIT       P24
*SFR* 000000A0H.5 DATA     BIT       P25
*SFR* 000000A0H.7 DATA     BIT       P27
*SFR* 00000096H   DATA     BYTE      P2M0
*SFR* 00000095H   DATA     BYTE      P2M1
*SFR* 000000B0H   DATA     BYTE      P3
*SFR* 000000B0H.2 DATA     BIT       P32
*SFR* 000000B0H.3 DATA     BIT       P33
*SFR* 000000B0H.4 DATA     BIT       P34
*SFR* 000000B0H.5 DATA     BIT       P35
*SFR* 000000B2H   DATA     BYTE      P3M0
*SFR* 000000B1H   DATA     BYTE      P3M1
*SFR* 000000C0H   DATA     BYTE      P4
*SFR* 000000C0H.0 DATA     BIT       P40
*SFR* 000000C0H.1 DATA     BIT       P41
*SFR* 000000C0H.2 DATA     BIT       P42
*SFR* 000000C0H.3 DATA     BIT       P43
*SFR* 000000C0H.5 DATA     BIT       P45
*SFR* 000000C0H.6 DATA     BIT       P46
*SFR* 000000B4H   DATA     BYTE      P4M0
*SFR* 000000B3H   DATA     BYTE      P4M1
*SFR* 000000C8H   DATA     BYTE      P5
*SFR* 000000C8H.1 DATA     BIT       P51
*SFR* 000000C8H.3 DATA     BIT       P53
L251 LINKER/LOCATER V4.66.93.0                                                        03/28/2026  21:02:40  PAGE 24


*SFR* 000000C8H.6 DATA     BIT       P56
*SFR* 000000C8H.7 DATA     BIT       P57
*SFR* 000000CAH   DATA     BYTE      P5M0
*SFR* 000000C9H   DATA     BYTE      P5M1
*SFR* 000000E8H   DATA     BYTE      P6
*SFR* 000000CCH   DATA     BYTE      P6M0
*SFR* 000000CBH   DATA     BYTE      P6M1
*SFR* 000000F8H   DATA     BYTE      P7
*SFR* 000000E2H   DATA     BYTE      P7M0
*SFR* 000000E1H   DATA     BYTE      P7M1
*SFR* 000000A2H   DATA     BYTE      P_SW1
*SFR* 000000BAH   DATA     BYTE      P_SW2
*SFR* 000000BBH   DATA     BYTE      P_SW3
*SFR* 000000BFH   DATA     BYTE      P_SW4
*SFR* 000000B8H.5 DATA     BIT       PADC
*SFR* 000000B7H.5 DATA     BIT       PADCH
*DEL*:00000000H   CODE     ---       parseGpsBuffer
*SFR* 000000B5H.5 DATA     BIT       PCMP
*SFR* 000000B6H.5 DATA     BIT       PCMPH
*SFR* 00000087H   DATA     BYTE      PCON
      00FF3D19H   CODE     ---       PID_Realize
*SFR* 000000E6H.5 DATA     BIT       PIE
      00FF4789H   CODE     ---       PlacePID_Control
      00FF5A82H   CODE     ---       PLL_Init
*SFR* 000000FFH.4 DATA     BIT       PNRST
      000103E0H   XDATA    ---       point_p
*SFR* 000000B5H.2 DATA     BIT       PPWMA
*SFR* 000000B6H.2 DATA     BIT       PPWMAH
*SFR* 000000B5H.3 DATA     BIT       PPWMB
*SFR* 000000B6H.3 DATA     BIT       PPWMBH
      00FF0678H   CODE     NEAR LAB  printf
*SFR* 000000DFH.2 DATA     BIT       PRTC
*SFR* 000000EEH.2 DATA     BIT       PRTCH
*SFR* 000000B8H.4 DATA     BIT       PS
*SFR* 000000B5H.0 DATA     BIT       PS2
*SFR* 000000B6H.0 DATA     BIT       PS2H
*SFR* 000000DFH.0 DATA     BIT       PS3
*SFR* 000000EEH.0 DATA     BIT       PS3H
*SFR* 000000DFH.1 DATA     BIT       PS4
*SFR* 000000EEH.1 DATA     BIT       PS4H
*SFR* 000000B7H.4 DATA     BIT       PSH
*SFR* 000000B5H.1 DATA     BIT       PSPI
*SFR* 000000B6H.1 DATA     BIT       PSPIH
*SFR* 000000D0H   DATA     BYTE      PSW
*SFR* 000000D1H   DATA     BYTE      PSW1
*SFR* 000000B8H.1 DATA     BIT       PT0
*SFR* 000000B7H.1 DATA     BIT       PT0H
*SFR* 000000B8H.3 DATA     BIT       PT1
*SFR* 000000B7H.3 DATA     BIT       PT1H
*DEL*:00000000H   CODE     ---       putchar
      00FF216DH   CODE     ---       PWM_Configuration
      00FF5095H   CODE     ---       PWMA_ISR_Handler
      00FF5116H   CODE     ---       PWMB_ISR_Handler
*SFR* 000000B8H.0 DATA     BIT       PX0
*SFR* 000000B7H.0 DATA     BIT       PX0H
*SFR* 000000B8H.2 DATA     BIT       PX1
*SFR* 000000B7H.2 DATA     BIT       PX1H
      00010192H   XDATA    INT       R
      0001005AH   XDATA    INT       R2
      000100E2H   XDATA    ---       R2_md
      00010052H   XDATA    ---       R_md
      00FF52CCH   CODE     ---       range_protect
      0001057CH   XDATA    INT       rc_LLR
      0001057AH   XDATA    INT       rc_LUD
      00010580H   XDATA    INT       rc_RLR
L251 LINKER/LOCATER V4.66.93.0                                                        03/28/2026  21:02:40  PAGE 25


      0001057EH   XDATA    INT       rc_RUD
      00010572H   XDATA    INT       rc_SW5
      00010574H   XDATA    INT       rc_SW6
      00010576H   XDATA    INT       rc_SW7
      00010578H   XDATA    INT       rc_SW8
      00FF5009H   CODE     ---       Read_Encoder
*DEL*:00000000H   CODE     ---       ReadPWMA
*DEL*:00000000H   CODE     ---       ReadPWMB
      000105C2H   XDATA    BYTE      receive_flag
*SFR* 00000098H.4 DATA     BIT       REN
*SFR* 000000DEH.5 DATA     BIT       RESFMT
*SFR* 00000098H.0 DATA     BIT       RI
      000100AAH   XDATA    INT       right_0
      000100ACH   XDATA    INT       right_1
      000100EAH   XDATA    DOUBLE    Right_High_Speed
      000101E1H   XDATA    ---       Right_MOTOR
      00010217H   XDATA    DOUBLE    RIGHT_MOTOR_Duty
      000100B2H   XDATA    ---       Right_MOTOR_PID
*SFR* 000000FFH   DATA     BYTE      RSTCFG
      000101A4H   XDATA    BYTE      run
      00000023H   EDATA    ---       RX1_Buffer
      000000A3H   EDATA    ---       RX3_Buffer
      00000163H   EDATA    ---       RX4_Buffer
*SFR* 0000008EH.0 DATA     BIT       S1BRT
*SFR* 0000008EH.5 DATA     BIT       S1M0x6
*SFR* 0000009AH   DATA     BYTE      S2CON
      00000021H.0 BIT      BIT       s2uFlag
*SFR* 000000ADH   DATA     BYTE      S3BUF
*SFR* 000000ACH   DATA     BYTE      S3CON
*SFR* 000000ACH.4 DATA     BIT       S3REN
*SFR* 000000ACH.0 DATA     BIT       S3RI
*SFR* 000000ACH.7 DATA     BIT       S3SM0
*SFR* 000000ACH.6 DATA     BIT       S3ST3
*SFR* 000000ACH.1 DATA     BIT       S3TI
*SFR* 000000FEH   DATA     BYTE      S4BUF
*SFR* 000000FDH   DATA     BYTE      S4CON
*SFR* 000000FDH.4 DATA     BIT       S4REN
*SFR* 000000FDH.0 DATA     BIT       S4RI
*SFR* 000000FDH.7 DATA     BIT       S4SM0
*SFR* 000000FDH.6 DATA     BIT       S4ST4
*SFR* 000000FDH.1 DATA     BIT       S4TI
      0001032BH   XDATA    ---       Save_Data
*SFR* 00000099H   DATA     BYTE      SBUF
      000103FAH   XDATA    BYTE      sbuff
      0001056FH   XDATA    BYTE      sbus_Rec_Fini_Flag
*SFR* 00000098H   DATA     BYTE      SCON
*DEL*:00000000H   CODE     ---       Servo_Ctrl
*DEL*:00000000H   CODE     ---       Servo_Init
*SFR* 00000087H.7 DATA     BIT       SMOD
*DEL*:00000000H   CODE     ---       Soft_I2C_Init
      00FF5B35H   CODE     ---       Soft_SPI_Init
      00FF0136H   CODE     ---       Soft_SPI_ReadWriteNbyte
*SFR* 000000CEH   DATA     BYTE      SPCTL
*SFR* 000000CFH   DATA     BYTE      SPDAT
*SFR* 000000CEH.6 DATA     BIT       SPEN
*DEL*:00000000H   CODE     ---       SPI_Init
      00FF564AH   CODE     ---       SPI_ISR_Handler
      00FF00DEH   CODE     ---       SPI_Mag_Read_Reg
      00FF5197H   CODE     ---       SPI_Mag_Write_Reg
      00FF0006H   CODE     ---       SPI_Read_buf
*DEL*:00000000H   CODE     ---       SPI_Read_NByte
      00FF5B7AH   CODE     ---       SPI_Read_reg
*DEL*:00000000H   CODE     ---       SPI_ReadByte
      000002A3H   EDATA    ---       SPI_RxBuffer
      0001061CH   XDATA    BYTE      SPI_RxCnt
L251 LINKER/LOCATER V4.66.93.0                                                        03/28/2026  21:02:40  PAGE 26


      0001061AH   XDATA    BYTE      SPI_RxTimerOut
*DEL*:00000000H   CODE     ---       SPI_SetMode
*SFR* 000000A0H.4 DATA     BIT       SPI_SS_2
*SFR* 000000C0H.0 DATA     BIT       SPI_SS_3
      00010619H   XDATA    BYTE      SPI_Wait_time_out
*DEL*:00000000H   CODE     ---       SPI_Write_NByte
      00FF0016H   CODE     ---       SPI_Write_reg
*DEL*:00000000H   CODE     ---       SPI_WriteByte
*SFR* 000000CDH.7 DATA     BIT       SPIF
      00000022H.1 BIT      BIT       SpiRxFlag
      00000021H.6 BIT      BIT       SpiSendFlag
      00000022H.2 BIT      BIT       SpiTxFlag
      00FF06A4H   CODE     NEAR LAB  sprintf
*SFR* 000000CDH   DATA     BYTE      SPSTAT
      00010582H   XDATA    ---       SReadBuff
      00FF06C4H   CODE     NEAR LAB  sscanf
*SFR* 000000CEH.7 DATA     BIT       SSIG
      00010102H   XDATA    INT       star_flag
      00010570H   XDATA    WORD      Status_flag
*DEL*:00000000H   CODE     ---       strchr?_
      00FF5BA2H   CODE     NEAR LAB  strcpy?_
*DEL*:00000000H   CODE     ---       strlen?_
*DEL*:00000000H   CODE     ---       strstr
      00FF5745H   CODE     ---       System_Init
*SFR* 00000089H.2 DATA     BIT       T0_CT
*SFR* 0000008FH.0 DATA     BIT       T0CLKO
*SFR* 0000008EH.7 DATA     BIT       T0x12
*SFR* 00000089H.6 DATA     BIT       T1_CT
*SFR* 0000008FH.1 DATA     BIT       T1CLKO
*SFR* 0000008EH.6 DATA     BIT       T1x12
*SFR* 0000008EH.3 DATA     BIT       T2_CT
*SFR* 0000008FH.2 DATA     BIT       T2CLKO
*SFR* 000000D6H   DATA     BYTE      T2H
*SFR* 000000D7H   DATA     BYTE      T2L
*SFR* 0000008EH.4 DATA     BIT       T2R
*SFR* 0000008EH.2 DATA     BIT       T2x12
*SFR* 000000DDH.2 DATA     BIT       T3_CT
*SFR* 000000DDH.0 DATA     BIT       T3CLKO
*SFR* 000000D4H   DATA     BYTE      T3H
*SFR* 000000D5H   DATA     BYTE      T3L
*SFR* 000000DDH.3 DATA     BIT       T3R
*SFR* 000000DDH.1 DATA     BIT       T3x12
*SFR* 000000DDH.6 DATA     BIT       T4_CT
*SFR* 000000DDH.4 DATA     BIT       T4CLKO
*SFR* 000000D2H   DATA     BYTE      T4H
*SFR* 000000D3H   DATA     BYTE      T4L
*SFR* 000000DDH.7 DATA     BIT       T4R
*SFR* 000000DDH   DATA     BYTE      T4T3M
*SFR* 000000DDH.5 DATA     BIT       T4x12
      000101F9H   XDATA    DOUBLE    target_angle
*SFR* 00000088H   DATA     BYTE      TCON
*DEL*:00000000H   CODE     ---       Test_ADC
*DEL*:00000000H   CODE     ---       Test_BD_GPS
*DEL*:00000000H   CODE     ---       Test_BLSmotor
*DEL*:00000000H   CODE     ---       Test_CCD
*DEL*:00000000H   CODE     ---       Test_EEPROM
*DEL*:00000000H   CODE     ---       Test_Encoder
*DEL*:00000000H   CODE     ---       Test_ExINT
*DEL*:00000000H   CODE     ---       Test_GPIO_KEY
*DEL*:00000000H   CODE     ---       Test_GPIO_LED
*DEL*:00000000H   CODE     ---       Test_GPIO_PxINT
*DEL*:00000000H   CODE     ---       Test_HotRC
*DEL*:00000000H   CODE     ---       Test_I2C_LQLSM6DSR
*DEL*:00000000H   CODE     ---       Test_IIC_VL53
*DEL*:00000000H   CODE     ---       Test_Motor
L251 LINKER/LOCATER V4.66.93.0                                                        03/28/2026  21:02:40  PAGE 27


*DEL*:00000000H   CODE     ---       Test_OLED
*DEL*:00000000H   CODE     ---       Test_Sample_WDT
*DEL*:00000000H   CODE     ---       Test_Servo
*DEL*:00000000H   CODE     ---       Test_SPI_LQLSM6DSR
*DEL*:00000000H   CODE     ---       Test_Timer
*DEL*:00000000H   CODE     ---       Test_UART
*DEL*:00000000H   CODE     ---       Test_UART_DMA
*SFR* 0000008CH   DATA     BYTE      TH0
*SFR* 0000008DH   DATA     BYTE      TH1
*SFR* 00000098H.1 DATA     BIT       TI
      00FF40DFH   CODE     ---       TIM_Init
      00FF01D6H   CODE     ---       TIM_Init_ms
*DEL*:00000000H   CODE     ---       TIM_Init_us
      00010164H   XDATA    INT       time_ben
      00FF3837H   CODE     ---       Timer0_ISR_Handler
      00FF01EEH   CODE     ---       Timer11_ISR_Handler
      00FF00A6H   CODE     ---       Timer1_ISR_Handler
      00FF0026H   CODE     ---       Timer2_ISR_Handler
      00FF0027H   CODE     ---       Timer3_ISR_Handler
      00FF0028H   CODE     ---       Timer4_ISR_Handler
      00FF57ADH   CODE     ---       Timer_EncInit
      00FF32D7H   CODE     ---       Timer_Inilize
      00010614H   XDATA    BYTE      times_count
*SFR* 0000008AH   DATA     BYTE      TL0
*SFR* 0000008BH   DATA     BYTE      TL1
*SFR* 00000089H   DATA     BYTE      TMOD
*SFR* 00000088H.4 DATA     BIT       TR0
*SFR* 00000088H.6 DATA     BIT       TR1
      0001014AH   XDATA    ---       Turn_ele
      00010022H   XDATA    ---       Turn_PID_ele
      000000E3H   EDATA    ---       TX1_Buffer
      000001E3H   EDATA    ---       TX3_Buffer
      00000223H   EDATA    ---       TX4_Buffer
      000105C3H   XDATA    ---       txt
      00000021H.1 BIT      BIT       u2sFlag
*DEL*:00000000H   CODE     ---       UART1_DMA_config
      00FF5200H   CODE     ---       UART1_ISR_Handler
      00FF5BB5H   CODE     ---       UART1_PutBuf
*DEL*:00000000H   CODE     ---       UART1_PutStr
      00FF4B2AH   CODE     ---       UART3_ISR_Handler
*DEL*:00000000H   CODE     ---       UART3_PutBuf
*DEL*:00000000H   CODE     ---       UART3_PutStr
      00FF4ECAH   CODE     ---       UART4_ISR_Handler
*DEL*:00000000H   CODE     ---       UART4_PutBuf
*DEL*:00000000H   CODE     ---       UART4_PutStr
*DEL*:00000000H   CODE     ---       UART_Configuration
*DEL*:00000000H   CODE     ---       UART_Init
      00000021H.4 BIT      BIT       UartSendFlag
      00FF5BDEH   CODE     ---       Ultima_Control
      00FF4668H   CODE     ---       UpDate_SBUS
*DEL*:00000000H   CODE     ---       UpdateHSPwm
*DEL*:00000000H   CODE     ---       UpdatePwm
      00FF43D1H   CODE     ---       UpdatePwmCh
*SFR* 000000DCH   DATA     BYTE      USBCLK
*SFR* 000000F4H   DATA     BYTE      USBCON
*DEL*:00000000H   CODE     ---       VL53_Read_nByte
      0001061BH   XDATA    BYTE      VL53_STAR
*DEL*:00000000H   CODE     ---       VL53_Write_Byte
      000101C5H   XDATA    INT       vu
*SFR* 000000CDH.6 DATA     BIT       WCOL
*SFR* 000000C1H   DATA     BYTE      WDT_CONTR
*DEL*:00000000H   CODE     ---       WDT_Inilize
*DEL*:00000000H   CODE     ---       WDT_Init
      00010064H   XDATA    DOUBLE    Weight_H
      00010082H   XDATA    DOUBLE    Weight_V
L251 LINKER/LOCATER V4.66.93.0                                                        03/28/2026  21:02:40  PAGE 28


*SFR* 000000ABH   DATA     BYTE      WKTCH
*DEL*:00000000H   CODE     ---       WritePWMA
*DEL*:00000000H   CODE     ---       WritePWMB
*SFR* 000000E9H   DATA     BYTE      WTST
*DEL*:00000000H   CODE     ---       XOSCClkConfig
      00010211H   XDATA    INT       z



SYMBOL TABLE OF MODULE:  .\OBJ_Out\LQ_STCAI8051_LIB (control)

      VALUE       REP       CLASS    TYPE      SYMBOL NAME
      ====================================================
      ---         MODULE    ---      ---       control
      00FF4975H   PUBLIC    CODE     ---       Angle_calculate
      00FF4789H   PUBLIC    CODE     ---       PlacePID_Control
      00FF3D19H   PUBLIC    CODE     ---       PID_Realize
      00FF3F3AH   PUBLIC    CODE     ---       angle_pid
      00FF4E1DH   PUBLIC    CODE     ---       Calculate_Vertical
      00FF5BDEH   PUBLIC    CODE     ---       Ultima_Control
      00FF2FDBH   PUBLIC    CODE     ---       key_scan
      00FF3598H   PUBLIC    CODE     ---       Motor_Control
      00FF4521H   PUBLIC    CODE     ---       Calculate_Weight_Mid
      00FF18EAH   PUBLIC    CODE     ---       Dir_Control
      00FF52CCH   PUBLIC    CODE     ---       range_protect
      00010000H   PUBLIC    XDATA    ---       M_md
      00010008H   PUBLIC    XDATA    INT       M2
      0001000AH   PUBLIC    XDATA    ---       Left_MOTOR
      00010022H   PUBLIC    XDATA    ---       Turn_PID_ele
      00010052H   PUBLIC    XDATA    ---       R_md
      0001005AH   PUBLIC    XDATA    INT       R2
      0001005CH   PUBLIC    XDATA    DOUBLE    encoder_L
      00010064H   PUBLIC    XDATA    DOUBLE    Weight_H
      0001006CH   PUBLIC    XDATA    DOUBLE    encoder_R
      00010074H   PUBLIC    XDATA    DOUBLE    k1
      0001007CH   PUBLIC    XDATA    INT       out_ben_turn
      0001007EH   PUBLIC    XDATA    FLOAT     Gyroz
      00010082H   PUBLIC    XDATA    DOUBLE    Weight_V
      0001008AH   PUBLIC    XDATA    DOUBLE    last_encoder_L
      00010092H   PUBLIC    XDATA    DOUBLE    LEFT_MOTOR_Duty
      0001009AH   PUBLIC    XDATA    DOUBLE    last_encoder_R
      000100A2H   PUBLIC    XDATA    ---       L2_md
      000100AAH   PUBLIC    XDATA    INT       right_0
      000100ACH   PUBLIC    XDATA    INT       right_1
      000100AEH   PUBLIC    XDATA    INT       flag_ben
      000100B0H   PUBLIC    XDATA    INT       led_flag
      000100B2H   PUBLIC    XDATA    ---       Right_MOTOR_PID
      000100E2H   PUBLIC    XDATA    ---       R2_md
      000100EAH   PUBLIC    XDATA    DOUBLE    Right_High_Speed
      000100F2H   PUBLIC    XDATA    DOUBLE    eleValue
      000100FAH   PUBLIC    XDATA    DOUBLE    delta_L
      00010102H   PUBLIC    XDATA    INT       star_flag
      00010104H   PUBLIC    XDATA    INT       left_0
      00010106H   PUBLIC    XDATA    INT       left_1
      00010108H   PUBLIC    XDATA    DOUBLE    delta_R
      00010110H   PUBLIC    XDATA    ---       Left_MOTOR_PID
      00010140H   PUBLIC    XDATA    INT       chu
      00010142H   PUBLIC    XDATA    DOUBLE    eleAdd
      0001014AH   PUBLIC    XDATA    ---       Turn_ele
      0001015AH   PUBLIC    XDATA    DOUBLE    Left_High_Speed
      00010162H   PUBLIC    XDATA    INT       key_flag
      00010164H   PUBLIC    XDATA    INT       time_ben
      00010166H   PUBLIC    XDATA    INT       L
      00010168H   PUBLIC    XDATA    INT       M
      0001016AH   PUBLIC    XDATA    ---       Inductor
L251 LINKER/LOCATER V4.66.93.0                                                        03/28/2026  21:02:40  PAGE 29


      0001018AH   PUBLIC    XDATA    DOUBLE    kd
      00010192H   PUBLIC    XDATA    INT       R
      00010194H   PUBLIC    XDATA    DOUBLE    ki
      0001019CH   PUBLIC    XDATA    DOUBLE    High_Speed
      000101A4H   PUBLIC    XDATA    BYTE      run
      000101A5H   PUBLIC    XDATA    DOUBLE    kp
      000101ADH   PUBLIC    XDATA    INT       acc_X
      000101AFH   PUBLIC    XDATA    INT       acc_Y
      000101B1H   PUBLIC    XDATA    INT       acc_Z
      000101B3H   PUBLIC    XDATA    DOUBLE    eleSub
      000101BBH   PUBLIC    XDATA    DOUBLE    Angle_gyro_z
      000101C3H   PUBLIC    XDATA    INT       charge_flag
      000101C5H   PUBLIC    XDATA    INT       vu
      000101C7H   PUBLIC    XDATA    INT       out_ben
      000101C9H   PUBLIC    XDATA    DOUBLE    eleOut
      000101D1H   PUBLIC    XDATA    DOUBLE    current_angle
      000101D9H   PUBLIC    XDATA    DOUBLE    elemid
      000101E1H   PUBLIC    XDATA    ---       Right_MOTOR
      000101F9H   PUBLIC    XDATA    DOUBLE    target_angle
      00010201H   PUBLIC    XDATA    DOUBLE    angle_delta
      00010209H   PUBLIC    XDATA    DOUBLE    M_K
      00010211H   PUBLIC    XDATA    INT       z
      00010213H   PUBLIC    XDATA    INT       gyro_X
      00010215H   PUBLIC    XDATA    INT       gyro_Y
      00010217H   PUBLIC    XDATA    DOUBLE    RIGHT_MOTOR_Duty
      0001021FH   PUBLIC    XDATA    INT       gyro_Z
      00010221H   PUBLIC    XDATA    ---       L_md
      00010229H   PUBLIC    XDATA    INT       L2
      000104FDH   PUBLIC    XDATA    BYTE      ?range_protect?BYTE
      00010501H   PUBLIC    XDATA    BYTE      ?PlacePID_Control?BYTE
      000104F9H   PUBLIC    XDATA    BYTE      ?PID_Realize?BYTE
      00010505H   PUBLIC    XDATA    BYTE      ?angle_pid?BYTE
      000000D0H   SFRSYM    DATA     BYTE      PSW
      0000009DH   SFRSYM    DATA     BYTE      IRCBAND
      00000097H   SFRSYM    DATA     BYTE      AUXR2
      000000EFH   SFRSYM    DATA     BYTE      AUXINTIF
      000000FDH   SFRSYM    DATA     BYTE      S4CON
      000000ACH   SFRSYM    DATA     BYTE      S3CON
      0000009AH   SFRSYM    DATA     BYTE      S2CON
      000000B7H   SFRSYM    DATA     BYTE      IPH
      000000CDH   SFRSYM    DATA     BYTE      SPSTAT
      000000DDH   SFRSYM    DATA     BYTE      T4T3M
      000000C1H   SFRSYM    DATA     BYTE      WDT_CONTR
      000000DFH   SFRSYM    DATA     BYTE      IP3
      000000F4H   SFRSYM    DATA     BYTE      USBCON
      000000B5H   SFRSYM    DATA     BYTE      IP2
      000000FFH   SFRSYM    DATA     BYTE      RSTCFG
      000000C7H   SFRSYM    DATA     BYTE      IAP_CONTR
      000000F9H   SFRSYM    DATA     BYTE      LINICR
      0000008EH   SFRSYM    DATA     BYTE      AUXR
      000000AFH   SFRSYM    DATA     BYTE      IE2
      00000088H   SFRSYM    DATA     BYTE      TCON
      00000089H   SFRSYM    DATA     BYTE      TMOD
      00000098H   SFRSYM    DATA     BYTE      SCON
      000000F1H   SFRSYM    DATA     BYTE      CANICR
      00000087H   SFRSYM    DATA     BYTE      PCON
      000000BCH   SFRSYM    DATA     BYTE      ADC_CONTR
      000000D1H   SFRSYM    DATA     BYTE      PSW1
      000000E7H   SFRSYM    DATA     BYTE      CMPCR2
      000000E6H   SFRSYM    DATA     BYTE      CMPCR1
      000000DEH   SFRSYM    DATA     BYTE      ADCCFG
      000000B8H   SFRSYM    DATA     BYTE      IP
      0000008FH   SFRSYM    DATA     BYTE      INTCLKO
      000000EEH   SFRSYM    DATA     BYTE      IP3H
      000000B6H   SFRSYM    DATA     BYTE      IP2H
L251 LINKER/LOCATER V4.66.93.0                                                        03/28/2026  21:02:40  PAGE 30


      000000BFH   SFRSYM    DATA     BYTE      P_SW4
      000000A8H   SFRSYM    DATA     BYTE      IE
      000000BBH   SFRSYM    DATA     BYTE      P_SW3
      000000BAH   SFRSYM    DATA     BYTE      P_SW2
      000000A2H   SFRSYM    DATA     BYTE      P_SW1
      000000CEH   SFRSYM    DATA     BYTE      SPCTL
      000000F8H   SFRSYM    DATA     BYTE      P7
      000000E8H   SFRSYM    DATA     BYTE      P6
      000000C8H   SFRSYM    DATA     BYTE      P5
      000000C0H   SFRSYM    DATA     BYTE      P4
      000000ABH   SFRSYM    DATA     BYTE      WKTCH
      000000B0H   SFRSYM    DATA     BYTE      P3
      000000A0H   SFRSYM    DATA     BYTE      P2
      00000090H   SFRSYM    DATA     BYTE      P1
      00000080H   SFRSYM    DATA     BYTE      P0

      00FF2FDBH   BLOCK     CODE     ---       LVL=0
      00FF2FDBH   LINE      CODE     ---       #68
      00FF2FDBH   LINE      CODE     ---       #70
      00FF2FE5H   LINE      CODE     ---       #72
      00FF3018H   LINE      CODE     ---       #74
      00FF303BH   LINE      CODE     ---       #75
      00FF3063H   LINE      CODE     ---       #76
      00FF308BH   LINE      CODE     ---       #77
      00FF30B2H   LINE      CODE     ---       #78
      00FF30D9H   LINE      CODE     ---       #79
      00FF3100H   LINE      CODE     ---       #80
      00FF3134H   LINE      CODE     ---       #81
      00FF3134H   LINE      CODE     ---       #82
      00FF313BH   LINE      CODE     ---       #83
      00FF313BH   LINE      CODE     ---       #84
      00FF3147H   LINE      CODE     ---       #86
      00FF317AH   LINE      CODE     ---       #88
      00FF319DH   LINE      CODE     ---       #89
      00FF31C5H   LINE      CODE     ---       #90
      00FF31EDH   LINE      CODE     ---       #91
      00FF3214H   LINE      CODE     ---       #92
      00FF323BH   LINE      CODE     ---       #93
      00FF3262H   LINE      CODE     ---       #94
      00FF3296H   LINE      CODE     ---       #95
      00FF3296H   LINE      CODE     ---       #96
      00FF329DH   LINE      CODE     ---       #97
      00FF329DH   LINE      CODE     ---       #98
      00FF32A6H   LINE      CODE     ---       #100
      00FF32BBH   LINE      CODE     ---       #101
      00FF32CFH   LINE      CODE     ---       #113
      00FF32D6H   LINE      CODE     ---       #114
      ---         BLOCKEND  ---      ---       LVL=0

      00FF52CCH   BLOCK     CODE     ---       LVL=0
      DR24/DR28   REGSYM    ---      DOUBLE    duty
      00010505H   SYMBOL    XDATA    DOUBLE    min
      0001050DH   SYMBOL    XDATA    DOUBLE    max
      00FF52CCH   LINE      CODE     ---       #122
      00FF52D0H   LINE      CODE     ---       #124
      00FF532DH   LINE      CODE     ---       #125
      ---         BLOCKEND  ---      ---       LVL=0

      00FF18EAH   BLOCK     CODE     ---       LVL=0
      00FF18ECH   BLOCK     CODE     NEAR LAB  LVL=1
      000104FDH   SYMBOL    XDATA    DOUBLE    Angle
      ---         BLOCKEND  ---      ---       LVL=1
      00FF18EAH   LINE      CODE     ---       #131
      00FF18ECH   LINE      CODE     ---       #132
      00FF18ECH   LINE      CODE     ---       #136
L251 LINKER/LOCATER V4.66.93.0                                                        03/28/2026  21:02:40  PAGE 31


      00FF18F7H   LINE      CODE     ---       #137
      00FF1902H   LINE      CODE     ---       #138
      00FF190DH   LINE      CODE     ---       #139
      00FF1918H   LINE      CODE     ---       #140
      00FF1923H   LINE      CODE     ---       #141
      00FF192DH   LINE      CODE     ---       #143
      00FF1942H   LINE      CODE     ---       #145
      00FF199DH   LINE      CODE     ---       #146
      00FF19BDH   LINE      CODE     ---       #147
      00FF19ECH   LINE      CODE     ---       #151
      00FF1A02H   LINE      CODE     ---       #157
      00FF1A39H   LINE      CODE     ---       #158
      00FF1A60H   LINE      CODE     ---       #159
      00FF1AA6H   LINE      CODE     ---       #161
      00FF1AA9H   LINE      CODE     ---       #163
      00FF1ABFH   LINE      CODE     ---       #164
      00FF1B1AH   LINE      CODE     ---       #165
      00FF1B1DH   LINE      CODE     ---       #167
      00FF1B26H   LINE      CODE     ---       #169
      00FF1B89H   LINE      CODE     ---       #170
      00FF1BBCH   LINE      CODE     ---       #171
      00FF1BBFH   LINE      CODE     ---       #180
      00FF1BC8H   LINE      CODE     ---       #182
      00FF1C29H   LINE      CODE     ---       #183
      00FF1C70H   LINE      CODE     ---       #184
      00FF1C70H   LINE      CODE     ---       #196
      00FF1CC9H   LINE      CODE     ---       #199
      00FF1D10H   LINE      CODE     ---       #200
      00FF1D18H   LINE      CODE     ---       #201
      00FF1D1EH   LINE      CODE     ---       #203
      00FF1D24H   LINE      CODE     ---       #204
      00FF1D2EH   LINE      CODE     ---       #206
      00FF1D46H   LINE      CODE     ---       #208
      00FF1D60H   LINE      CODE     ---       #209
      00FF1D67H   LINE      CODE     ---       #212
      00FF1D75H   LINE      CODE     ---       #214
      00FF1D7FH   LINE      CODE     ---       #215
      00FF1D7FH   LINE      CODE     ---       #219
      00FF1DAFH   LINE      CODE     ---       #221
      00FF1DB0H   LINE      CODE     ---       #222
      00FF1DB2H   LINE      CODE     ---       #223
      00FF1DE8H   LINE      CODE     ---       #225
      00FF1DEEH   LINE      CODE     ---       #226
      00FF1DEEH   LINE      CODE     ---       #229
      00FF1DFCH   LINE      CODE     ---       #237
      00FF1E1FH   LINE      CODE     ---       #238
      00FF1E34H   LINE      CODE     ---       #239
      00FF1E6EH   LINE      CODE     ---       #240
      00FF1E78H   LINE      CODE     ---       #241
      00FF1E97H   LINE      CODE     ---       #242
      00FF1EA1H   LINE      CODE     ---       #243
      00FF1EC0H   LINE      CODE     ---       #244
      00FF1EDCH   LINE      CODE     ---       #248
      00FF1EE8H   LINE      CODE     ---       #250
      00FF1F02H   LINE      CODE     ---       #251
      00FF1F02H   LINE      CODE     ---       #296
      00FF1F20H   LINE      CODE     ---       #298
      00FF1F44H   LINE      CODE     ---       #299
      00FF1FBFH   LINE      CODE     ---       #300
      00FF2022H   LINE      CODE     ---       #301
      00FF2025H   LINE      CODE     ---       #304
      00FF204CH   LINE      CODE     ---       #305
      00FF20C7H   LINE      CODE     ---       #306
      00FF212AH   LINE      CODE     ---       #307
      00FF212AH   LINE      CODE     ---       #309
L251 LINKER/LOCATER V4.66.93.0                                                        03/28/2026  21:02:40  PAGE 32


      00FF212CH   LINE      CODE     ---       #310
      00FF2130H   LINE      CODE     ---       #312
      00FF2146H   LINE      CODE     ---       #313
      00FF2158H   LINE      CODE     ---       #314
      00FF216AH   LINE      CODE     ---       #315
      ---         BLOCKEND  ---      ---       LVL=0

      00FF3598H   BLOCK     CODE     ---       LVL=0
      00FF3598H   LINE      CODE     ---       #322
      00FF3598H   LINE      CODE     ---       #325
      00FF35B8H   LINE      CODE     ---       #326
      00FF35D6H   LINE      CODE     ---       #335
      00FF3655H   LINE      CODE     ---       #336
      00FF36D4H   LINE      CODE     ---       #339
      00FF36F3H   LINE      CODE     ---       #341
      00FF370DH   LINE      CODE     ---       #342
      00FF370FH   LINE      CODE     ---       #345
      00FF3768H   LINE      CODE     ---       #346
      00FF3768H   LINE      CODE     ---       #348
      00FF3787H   LINE      CODE     ---       #350
      00FF37A1H   LINE      CODE     ---       #351
      00FF37A3H   LINE      CODE     ---       #354
      00FF37FCH   LINE      CODE     ---       #355
      00FF37FCH   LINE      CODE     ---       #356
      ---         BLOCKEND  ---      ---       LVL=0

      00FF5BDEH   BLOCK     CODE     ---       LVL=0
      00FF5BDEH   LINE      CODE     ---       #364
      00FF5BDEH   LINE      CODE     ---       #367
      00FF5BE1H   LINE      CODE     ---       #368
      ---         BLOCKEND  ---      ---       LVL=0

      00FF4789H   BLOCK     CODE     ---       LVL=0
      REG=3       REGSYM    ---      ---       sptr
      00010505H   SYMBOL    XDATA    DOUBLE    NowPiont
      0001050DH   SYMBOL    XDATA    DOUBLE    SetPoint
      REG=7       REGSYM    ---      ---       Turn_PID
      00FF478FH   BLOCK     CODE     NEAR LAB  LVL=1
      DR0 /DR4    REGSYM    ---      DOUBLE    Output
      ---         BLOCKEND  ---      ---       LVL=1
      00FF4789H   LINE      CODE     ---       #379
      00FF478FH   LINE      CODE     ---       #380
      00FF478FH   LINE      CODE     ---       #383
      00FF47AEH   LINE      CODE     ---       #384
      00FF47CEH   LINE      CODE     ---       #386
      00FF4804H   LINE      CODE     ---       #388
      00FF4866H   LINE      CODE     ---       #392
      00FF4885H   LINE      CODE     ---       #394
      00FF4885H   LINE      CODE     ---       #395
      ---         BLOCKEND  ---      ---       LVL=0

      00FF3D19H   BLOCK     CODE     ---       LVL=0
      REG=3       REGSYM    ---      ---       sptr
      000104FDH   SYMBOL    XDATA    DOUBLE    ActualSpeed
      00010505H   SYMBOL    XDATA    DOUBLE    SetSpeed
      REG=7       REGSYM    ---      ---       MOTOR_PID
      00FF3D1FH   BLOCK     CODE     NEAR LAB  LVL=1
      DR0 /DR4    REGSYM    ---      DOUBLE    Increase
      00010511H   SYMBOL    XDATA    DOUBLE    iTermLimited
      ---         BLOCKEND  ---      ---       LVL=1
      00FF3D19H   LINE      CODE     ---       #401
      00FF3D1FH   LINE      CODE     ---       #402
      00FF3D1FH   LINE      CODE     ---       #407
      00FF3D3EH   LINE      CODE     ---       #408
      00FF3D5EH   LINE      CODE     ---       #409
L251 LINKER/LOCATER V4.66.93.0                                                        03/28/2026  21:02:40  PAGE 33


      00FF3D7EH   LINE      CODE     ---       #412
      00FF3DB4H   LINE      CODE     ---       #415
      00FF3DE8H   LINE      CODE     ---       #416
      00FF3E15H   LINE      CODE     ---       #417
      00FF3E4CH   LINE      CODE     ---       #420
      00FF3EF8H   LINE      CODE     ---       #425
      00FF3F18H   LINE      CODE     ---       #426
      00FF3F37H   LINE      CODE     ---       #428
      00FF3F37H   LINE      CODE     ---       #429
      ---         BLOCKEND  ---      ---       LVL=0

      00FF4521H   BLOCK     CODE     ---       LVL=0
      00010505H   SYMBOL    XDATA    DOUBLE    M
      00FF4533H   BLOCK     CODE     NEAR LAB  LVL=1
      0001050DH   SYMBOL    XDATA    DOUBLE    k
      ---         BLOCKEND  ---      ---       LVL=1
      00FF4521H   LINE      CODE     ---       #435
      00FF4533H   LINE      CODE     ---       #436
      00FF4533H   LINE      CODE     ---       #437
      00FF4549H   LINE      CODE     ---       #439
      00FF456EH   LINE      CODE     ---       #441
      00FF4574H   LINE      CODE     ---       #442
      00FF4576H   LINE      CODE     ---       #443
      00FF459AH   LINE      CODE     ---       #445
      00FF45CAH   LINE      CODE     ---       #446
      00FF45CCH   LINE      CODE     ---       #449
      00FF45E2H   LINE      CODE     ---       #450
      00FF45E2H   LINE      CODE     ---       #452
      00FF4616H   LINE      CODE     ---       #453
      00FF4667H   LINE      CODE     ---       #454
      ---         BLOCKEND  ---      ---       LVL=0

      00FF4E1DH   BLOCK     CODE     ---       LVL=0
      00010505H   SYMBOL    XDATA    DOUBLE    k
      00FF4E1DH   LINE      CODE     ---       #468
      00FF4E1DH   LINE      CODE     ---       #469
      00FF4E1DH   LINE      CODE     ---       #470
      00FF4E33H   LINE      CODE     ---       #471
      00FF4E33H   LINE      CODE     ---       #473
      00FF4E68H   LINE      CODE     ---       #476
      00FF4EC9H   LINE      CODE     ---       #477
      ---         BLOCKEND  ---      ---       LVL=0

      00FF4975H   BLOCK     CODE     ---       LVL=0
      00FF4975H   LINE      CODE     ---       #482
      00FF4977H   LINE      CODE     ---       #484
      00FF498FH   LINE      CODE     ---       #485
      00FF49D0H   LINE      CODE     ---       #486
      00FF4A13H   LINE      CODE     ---       #488
      00FF4A57H   LINE      CODE     ---       #489
      ---         BLOCKEND  ---      ---       LVL=0
      REG=2       REGSYM    ---      ---       arr
      WR30        REGSYM    ---      INT       times
      WR28        REGSYM    ---      INT       min
      WR4         REGSYM    ---      INT       max
      WR6         REGSYM    ---      INT       sum
      WR2         REGSYM    ---      INT       i
      WR14        REGSYM    ---      INT       z

      00FF3F3AH   BLOCK     CODE     ---       LVL=0
      00010505H   SYMBOL    XDATA    DOUBLE    target
      0001050DH   SYMBOL    XDATA    DOUBLE    current
      00FF3F4CH   BLOCK     CODE     NEAR LAB  LVL=1
      00010515H   SYMBOL    XDATA    DOUBLE    outputa
      0001051DH   SYMBOL    XDATA    DOUBLE    integral
L251 LINKER/LOCATER V4.66.93.0                                                        03/28/2026  21:02:40  PAGE 34


      00010525H   SYMBOL    XDATA    DOUBLE    derivative
      0001052DH   SYMBOL    XDATA    DOUBLE    error
      ---         BLOCKEND  ---      ---       LVL=1
      00FF3F3AH   LINE      CODE     ---       #537
      00FF3F4CH   LINE      CODE     ---       #538
      00FF3F4CH   LINE      CODE     ---       #539
      00FF3F62H   LINE      CODE     ---       #540
      00FF3F62H   LINE      CODE     ---       #541
      00FF3F62H   LINE      CODE     ---       #543
      00FF3F74H   LINE      CODE     ---       #544
      00FF3FADH   LINE      CODE     ---       #545
      00FF3FBFH   LINE      CODE     ---       #547
      00FF3FD1H   LINE      CODE     ---       #548
      00FF406EH   LINE      CODE     ---       #551
      00FF4097H   LINE      CODE     ---       #552
      00FF40CCH   LINE      CODE     ---       #554
      00FF40CCH   LINE      CODE     ---       #555
      00FF40DEH   LINE      CODE     ---       #556
      ---         BLOCKEND  ---      ---       LVL=0
      DR24/DR28   REGSYM    ---      DOUBLE    error
      DR24/DR28   REGSYM    ---      DOUBLE    speedd

      ---         MODULE    ---      ---       main
      00FF5745H   PUBLIC    CODE     ---       System_Init
      00FF2BFCH   PUBLIC    CODE     ---       main
      00FF5A82H   PUBLIC    CODE     ---       PLL_Init
      000105C3H   PUBLIC    XDATA    ---       txt
      00000094H   SFRSYM    DATA     BYTE      P0M0
      000000D0H   SFRSYM    DATA     BYTE      PSW
      000000BAH.7 SFRSYM    DATA     BIT       EAXFR
      0000009DH   SFRSYM    DATA     BYTE      IRCBAND
      00000097H   SFRSYM    DATA     BYTE      AUXR2
      000000EAH   SFRSYM    DATA     BYTE      CKCON
      000000EDH   SFRSYM    DATA     BYTE      DMAIR
      000000EFH   SFRSYM    DATA     BYTE      AUXINTIF
      000000FDH   SFRSYM    DATA     BYTE      S4CON
      000000ACH   SFRSYM    DATA     BYTE      S3CON
      0000009AH   SFRSYM    DATA     BYTE      S2CON
      000000B7H   SFRSYM    DATA     BYTE      IPH
      000000CDH   SFRSYM    DATA     BYTE      SPSTAT
      000000DDH   SFRSYM    DATA     BYTE      T4T3M
      000000C1H   SFRSYM    DATA     BYTE      WDT_CONTR
      000000E9H   SFRSYM    DATA     BYTE      WTST
      000000DFH   SFRSYM    DATA     BYTE      IP3
      000000F4H   SFRSYM    DATA     BYTE      USBCON
      000000B5H   SFRSYM    DATA     BYTE      IP2
      000000FFH   SFRSYM    DATA     BYTE      RSTCFG
      000000DCH   SFRSYM    DATA     BYTE      USBCLK
      000000C7H   SFRSYM    DATA     BYTE      IAP_CONTR
      000000F9H   SFRSYM    DATA     BYTE      LINICR
      0000008EH   SFRSYM    DATA     BYTE      AUXR
      000000AFH   SFRSYM    DATA     BYTE      IE2
      00000088H   SFRSYM    DATA     BYTE      TCON
      00000089H   SFRSYM    DATA     BYTE      TMOD
      00000098H   SFRSYM    DATA     BYTE      SCON
      000000F1H   SFRSYM    DATA     BYTE      CANICR
      00000087H   SFRSYM    DATA     BYTE      PCON
      000000BCH   SFRSYM    DATA     BYTE      ADC_CONTR
      000000D1H   SFRSYM    DATA     BYTE      PSW1
      000000E7H   SFRSYM    DATA     BYTE      CMPCR2
      000000E6H   SFRSYM    DATA     BYTE      CMPCR1
      000000DEH   SFRSYM    DATA     BYTE      ADCCFG
      000000B8H   SFRSYM    DATA     BYTE      IP
      000000FFH.4 SFRSYM    DATA     BIT       PNRST
      0000008FH   SFRSYM    DATA     BYTE      INTCLKO
L251 LINKER/LOCATER V4.66.93.0                                                        03/28/2026  21:02:40  PAGE 35


      000000EEH   SFRSYM    DATA     BYTE      IP3H
      000000B6H   SFRSYM    DATA     BYTE      IP2H
      000000BFH   SFRSYM    DATA     BYTE      P_SW4
      000000A8H   SFRSYM    DATA     BYTE      IE
      000000BBH   SFRSYM    DATA     BYTE      P_SW3
      000000BAH   SFRSYM    DATA     BYTE      P_SW2
      000000A2H   SFRSYM    DATA     BYTE      P_SW1
      000000CEH   SFRSYM    DATA     BYTE      SPCTL
      000000F8H   SFRSYM    DATA     BYTE      P7
      000000A8H.7 SFRSYM    DATA     BIT       EA
      000000E8H   SFRSYM    DATA     BYTE      P6
      000000C8H   SFRSYM    DATA     BYTE      P5
      000000C0H   SFRSYM    DATA     BYTE      P4
      000000C9H   SFRSYM    DATA     BYTE      P5M1
      000000ABH   SFRSYM    DATA     BYTE      WKTCH
      000000B0H   SFRSYM    DATA     BYTE      P3
      000000B3H   SFRSYM    DATA     BYTE      P4M1
      000000CAH   SFRSYM    DATA     BYTE      P5M0
      000000A0H   SFRSYM    DATA     BYTE      P2
      000000B1H   SFRSYM    DATA     BYTE      P3M1
      000000B4H   SFRSYM    DATA     BYTE      P4M0
      00000090H   SFRSYM    DATA     BYTE      P1
      00000095H   SFRSYM    DATA     BYTE      P2M1
      000000B2H   SFRSYM    DATA     BYTE      P3M0
      00000080H   SFRSYM    DATA     BYTE      P0
      00000091H   SFRSYM    DATA     BYTE      P1M1
      00000096H   SFRSYM    DATA     BYTE      P2M0
      00000092H   SFRSYM    DATA     BYTE      P1M0
      00000093H   SFRSYM    DATA     BYTE      P0M1

      00FF2BFCH   BLOCK     CODE     ---       LVL=0
      00FF2BFCH   LINE      CODE     ---       #33
      00FF2BFCH   LINE      CODE     ---       #35
      00FF2BFFH   LINE      CODE     ---       #36
      00FF2C01H   LINE      CODE     ---       #37
      00FF2C04H   LINE      CODE     ---       #38
      00FF2C07H   LINE      CODE     ---       #39
      00FF2C0AH   LINE      CODE     ---       #40
      00FF2C0FH   LINE      CODE     ---       #41
      00FF2C16H   LINE      CODE     ---       #42
      00FF2C1FH   LINE      CODE     ---       #43
      00FF2C27H   LINE      CODE     ---       #44
      00FF2C30H   LINE      CODE     ---       #45
      00FF2C33H   LINE      CODE     ---       #46
      00FF2C33H   LINE      CODE     ---       #62
      00FF2C82H   LINE      CODE     ---       #63
      00FF2C90H   LINE      CODE     ---       #65
      00FF2CAFH   LINE      CODE     ---       #67
      00FF2CBEH   LINE      CODE     ---       #70
      00FF2D19H   LINE      CODE     ---       #71
      00FF2D28H   LINE      CODE     ---       #74
      00FF2D5FH   LINE      CODE     ---       #76
      00FF2D6EH   LINE      CODE     ---       #78
      00FF2D8DH   LINE      CODE     ---       #79
      00FF2D9DH   LINE      CODE     ---       #84
      00FF2DD4H   LINE      CODE     ---       #85
      00FF2DE4H   LINE      CODE     ---       #87
      00FF2E03H   LINE      CODE     ---       #88
      00FF2E12H   LINE      CODE     ---       #90
      00FF2E3DH   LINE      CODE     ---       #91
      00FF2E4CH   LINE      CODE     ---       #93
      00FF2E83H   LINE      CODE     ---       #94
      00FF2E93H   LINE      CODE     ---       #95
      00FF2ECAH   LINE      CODE     ---       #96
      00FF2EDAH   LINE      CODE     ---       #98
L251 LINKER/LOCATER V4.66.93.0                                                        03/28/2026  21:02:40  PAGE 36


      00FF2F11H   LINE      CODE     ---       #99
      00FF2F20H   LINE      CODE     ---       #100
      00FF2F57H   LINE      CODE     ---       #101
      00FF2F67H   LINE      CODE     ---       #106
      00FF2FC2H   LINE      CODE     ---       #107
      00FF2FD1H   LINE      CODE     ---       #110
      00FF2FD8H   LINE      CODE     ---       #112
      ---         BLOCKEND  ---      ---       LVL=0

      00FF5A82H   BLOCK     CODE     ---       LVL=0
      00FF5A82H   LINE      CODE     ---       #121
      00FF5A82H   LINE      CODE     ---       #124
      00FF5A85H   LINE      CODE     ---       #125
      00FF5A88H   LINE      CODE     ---       #126
      00FF5A98H   LINE      CODE     ---       #127
      00FF5AA0H   LINE      CODE     ---       #128
      00FF5AA3H   LINE      CODE     ---       #129
      ---         BLOCKEND  ---      ---       LVL=0

      00FF5745H   BLOCK     CODE     ---       LVL=0
      00FF5745H   LINE      CODE     ---       #137
      00FF5745H   LINE      CODE     ---       #139
      00FF5748H   LINE      CODE     ---       #140
      00FF574BH   LINE      CODE     ---       #141
      00FF574EH   LINE      CODE     ---       #143
      00FF5751H   LINE      CODE     ---       #144
      00FF5757H   LINE      CODE     ---       #145
      00FF575DH   LINE      CODE     ---       #146
      00FF5763H   LINE      CODE     ---       #147
      00FF5769H   LINE      CODE     ---       #148
      00FF576FH   LINE      CODE     ---       #149
      00FF5775H   LINE      CODE     ---       #151
      00FF5778H   LINE      CODE     ---       #153
      ---         BLOCKEND  ---      ---       LVL=0

      ---         MODULE    ---      ---       LQ_ADC
      00FF5690H   PUBLIC    CODE     ---       ADC_Init
      00000094H   SFRSYM    DATA     BYTE      P0M0
      000000D0H   SFRSYM    DATA     BYTE      PSW
      0000009DH   SFRSYM    DATA     BYTE      IRCBAND
      00000097H   SFRSYM    DATA     BYTE      AUXR2
      000000EFH   SFRSYM    DATA     BYTE      AUXINTIF
      000000FDH   SFRSYM    DATA     BYTE      S4CON
      000000ACH   SFRSYM    DATA     BYTE      S3CON
      0000009AH   SFRSYM    DATA     BYTE      S2CON
      000000B7H   SFRSYM    DATA     BYTE      IPH
      000000CDH   SFRSYM    DATA     BYTE      SPSTAT
      000000DDH   SFRSYM    DATA     BYTE      T4T3M
      000000C1H   SFRSYM    DATA     BYTE      WDT_CONTR
      000000DFH   SFRSYM    DATA     BYTE      IP3
      000000F4H   SFRSYM    DATA     BYTE      USBCON
      000000B5H   SFRSYM    DATA     BYTE      IP2
      000000FFH   SFRSYM    DATA     BYTE      RSTCFG
      000000C7H   SFRSYM    DATA     BYTE      IAP_CONTR
      000000F9H   SFRSYM    DATA     BYTE      LINICR
      0000008EH   SFRSYM    DATA     BYTE      AUXR
      000000AFH   SFRSYM    DATA     BYTE      IE2
      00000088H   SFRSYM    DATA     BYTE      TCON
      00000089H   SFRSYM    DATA     BYTE      TMOD
      00000098H   SFRSYM    DATA     BYTE      SCON
      000000F1H   SFRSYM    DATA     BYTE      CANICR
      00000087H   SFRSYM    DATA     BYTE      PCON
      000000BCH   SFRSYM    DATA     BYTE      ADC_CONTR
      000000D1H   SFRSYM    DATA     BYTE      PSW1
      000000E7H   SFRSYM    DATA     BYTE      CMPCR2
L251 LINKER/LOCATER V4.66.93.0                                                        03/28/2026  21:02:40  PAGE 37


      000000E6H   SFRSYM    DATA     BYTE      CMPCR1
      000000DEH   SFRSYM    DATA     BYTE      ADCCFG
      000000B8H   SFRSYM    DATA     BYTE      IP
      0000008FH   SFRSYM    DATA     BYTE      INTCLKO
      000000EEH   SFRSYM    DATA     BYTE      IP3H
      000000B6H   SFRSYM    DATA     BYTE      IP2H
      000000BFH   SFRSYM    DATA     BYTE      P_SW4
      000000A8H   SFRSYM    DATA     BYTE      IE
      000000BBH   SFRSYM    DATA     BYTE      P_SW3
      000000BAH   SFRSYM    DATA     BYTE      P_SW2
      000000A2H   SFRSYM    DATA     BYTE      P_SW1
      000000CEH   SFRSYM    DATA     BYTE      SPCTL
      000000F8H   SFRSYM    DATA     BYTE      P7
      000000E8H   SFRSYM    DATA     BYTE      P6
      000000C8H   SFRSYM    DATA     BYTE      P5
      000000C0H   SFRSYM    DATA     BYTE      P4
      000000ABH   SFRSYM    DATA     BYTE      WKTCH
      000000B0H   SFRSYM    DATA     BYTE      P3
      000000A0H   SFRSYM    DATA     BYTE      P2
      00000090H   SFRSYM    DATA     BYTE      P1
      00000080H   SFRSYM    DATA     BYTE      P0
      00000091H   SFRSYM    DATA     BYTE      P1M1
      00000092H   SFRSYM    DATA     BYTE      P1M0
      00000093H   SFRSYM    DATA     BYTE      P0M1

      00FF5690H   BLOCK     CODE     ---       LVL=0
      00010547H   SYMBOL    XDATA    ---       ADC_InitStructure
      00FF5690H   LINE      CODE     ---       #26
      00FF5690H   LINE      CODE     ---       #27
      00FF5690H   LINE      CODE     ---       #31
      00FF5696H   LINE      CODE     ---       #32
      00FF569CH   LINE      CODE     ---       #35
      00FF56A2H   LINE      CODE     ---       #36
      00FF56A7H   LINE      CODE     ---       #37
      00FF56ADH   LINE      CODE     ---       #38
      00FF56B3H   LINE      CODE     ---       #39
      00FF56B9H   LINE      CODE     ---       #40
      00FF56C4H   LINE      CODE     ---       #41
      00FF56C9H   LINE      CODE     ---       #42
      ---         BLOCKEND  ---      ---       LVL=0

      ---         MODULE    ---      ---       LQ_BDGPS
      0001032BH   PUBLIC    XDATA    ---       Save_Data
      000103E0H   PUBLIC    XDATA    ---       point_p
      000000D0H   SFRSYM    DATA     BYTE      PSW
      0000009DH   SFRSYM    DATA     BYTE      IRCBAND
      00000097H   SFRSYM    DATA     BYTE      AUXR2
      000000EFH   SFRSYM    DATA     BYTE      AUXINTIF
      000000FDH   SFRSYM    DATA     BYTE      S4CON
      000000ACH   SFRSYM    DATA     BYTE      S3CON
      0000009AH   SFRSYM    DATA     BYTE      S2CON
      000000B7H   SFRSYM    DATA     BYTE      IPH
      000000CDH   SFRSYM    DATA     BYTE      SPSTAT
      000000DDH   SFRSYM    DATA     BYTE      T4T3M
      000000C1H   SFRSYM    DATA     BYTE      WDT_CONTR
      000000DFH   SFRSYM    DATA     BYTE      IP3
      000000F4H   SFRSYM    DATA     BYTE      USBCON
      000000B5H   SFRSYM    DATA     BYTE      IP2
      000000FFH   SFRSYM    DATA     BYTE      RSTCFG
      000000C7H   SFRSYM    DATA     BYTE      IAP_CONTR
      000000F9H   SFRSYM    DATA     BYTE      LINICR
      0000008EH   SFRSYM    DATA     BYTE      AUXR
      000000AFH   SFRSYM    DATA     BYTE      IE2
      00000088H   SFRSYM    DATA     BYTE      TCON
      00000089H   SFRSYM    DATA     BYTE      TMOD
L251 LINKER/LOCATER V4.66.93.0                                                        03/28/2026  21:02:40  PAGE 38


      00000098H   SFRSYM    DATA     BYTE      SCON
      000000F1H   SFRSYM    DATA     BYTE      CANICR
      00000087H   SFRSYM    DATA     BYTE      PCON
      000000BCH   SFRSYM    DATA     BYTE      ADC_CONTR
      000000D1H   SFRSYM    DATA     BYTE      PSW1
      000000E7H   SFRSYM    DATA     BYTE      CMPCR2
      000000E6H   SFRSYM    DATA     BYTE      CMPCR1
      000000DEH   SFRSYM    DATA     BYTE      ADCCFG
      000000B8H   SFRSYM    DATA     BYTE      IP
      0000008FH   SFRSYM    DATA     BYTE      INTCLKO
      000000EEH   SFRSYM    DATA     BYTE      IP3H
      000000B6H   SFRSYM    DATA     BYTE      IP2H
      000000BFH   SFRSYM    DATA     BYTE      P_SW4
      000000A8H   SFRSYM    DATA     BYTE      IE
      000000BBH   SFRSYM    DATA     BYTE      P_SW3
      000000BAH   SFRSYM    DATA     BYTE      P_SW2
      000000A2H   SFRSYM    DATA     BYTE      P_SW1
      000000CEH   SFRSYM    DATA     BYTE      SPCTL
      000000F8H   SFRSYM    DATA     BYTE      P7
      000000E8H   SFRSYM    DATA     BYTE      P6
      000000C8H   SFRSYM    DATA     BYTE      P5
      000000C0H   SFRSYM    DATA     BYTE      P4
      000000ABH   SFRSYM    DATA     BYTE      WKTCH
      000000B0H   SFRSYM    DATA     BYTE      P3
      000000A0H   SFRSYM    DATA     BYTE      P2
      00000090H   SFRSYM    DATA     BYTE      P1
      00000080H   SFRSYM    DATA     BYTE      P0
      REG=3       REGSYM    ---      ---       str
      REG=3       REGSYM    ---      ---       subString
      REG=3       REGSYM    ---      ---       Lon_X
      REG=3       REGSYM    ---      ---       BDdata

      ---         MODULE    ---      ---       LQ_CCD
      0001047CH   PUBLIC    XDATA    ---       CCD1_Bin
      000000D0H   SFRSYM    DATA     BYTE      PSW
      0000009DH   SFRSYM    DATA     BYTE      IRCBAND
      00000097H   SFRSYM    DATA     BYTE      AUXR2
      000000EFH   SFRSYM    DATA     BYTE      AUXINTIF
      000000FDH   SFRSYM    DATA     BYTE      S4CON
      000000ACH   SFRSYM    DATA     BYTE      S3CON
      0000009AH   SFRSYM    DATA     BYTE      S2CON
      000000B7H   SFRSYM    DATA     BYTE      IPH
      000000CDH   SFRSYM    DATA     BYTE      SPSTAT
      000000DDH   SFRSYM    DATA     BYTE      T4T3M
      000000C1H   SFRSYM    DATA     BYTE      WDT_CONTR
      000000DFH   SFRSYM    DATA     BYTE      IP3
      000000F4H   SFRSYM    DATA     BYTE      USBCON
      000000B5H   SFRSYM    DATA     BYTE      IP2
      000000FFH   SFRSYM    DATA     BYTE      RSTCFG
      000000C7H   SFRSYM    DATA     BYTE      IAP_CONTR
      000000F9H   SFRSYM    DATA     BYTE      LINICR
      0000008EH   SFRSYM    DATA     BYTE      AUXR
      000000AFH   SFRSYM    DATA     BYTE      IE2
      00000090H.5 SFRSYM    DATA     BIT       P15
      00000088H   SFRSYM    DATA     BYTE      TCON
      00000089H   SFRSYM    DATA     BYTE      TMOD
      00000090H.3 SFRSYM    DATA     BIT       P13
      00000098H   SFRSYM    DATA     BYTE      SCON
      000000F1H   SFRSYM    DATA     BYTE      CANICR
      00000087H   SFRSYM    DATA     BYTE      PCON
      000000BCH   SFRSYM    DATA     BYTE      ADC_CONTR
      000000D1H   SFRSYM    DATA     BYTE      PSW1
      000000E7H   SFRSYM    DATA     BYTE      CMPCR2
      000000E6H   SFRSYM    DATA     BYTE      CMPCR1
      000000DEH   SFRSYM    DATA     BYTE      ADCCFG
L251 LINKER/LOCATER V4.66.93.0                                                        03/28/2026  21:02:40  PAGE 39


      000000B8H   SFRSYM    DATA     BYTE      IP
      0000008FH   SFRSYM    DATA     BYTE      INTCLKO
      000000EEH   SFRSYM    DATA     BYTE      IP3H
      000000B6H   SFRSYM    DATA     BYTE      IP2H
      000000BFH   SFRSYM    DATA     BYTE      P_SW4
      000000A8H   SFRSYM    DATA     BYTE      IE
      000000BBH   SFRSYM    DATA     BYTE      P_SW3
      000000BAH   SFRSYM    DATA     BYTE      P_SW2
      000000A2H   SFRSYM    DATA     BYTE      P_SW1
      000000CEH   SFRSYM    DATA     BYTE      SPCTL
      000000F8H   SFRSYM    DATA     BYTE      P7
      000000E8H   SFRSYM    DATA     BYTE      P6
      000000C8H   SFRSYM    DATA     BYTE      P5
      000000C0H   SFRSYM    DATA     BYTE      P4
      000000ABH   SFRSYM    DATA     BYTE      WKTCH
      000000B0H   SFRSYM    DATA     BYTE      P3
      000000A0H   SFRSYM    DATA     BYTE      P2
      00000090H   SFRSYM    DATA     BYTE      P1
      00000080H   SFRSYM    DATA     BYTE      P0
      00000091H   SFRSYM    DATA     BYTE      P1M1
      00000092H   SFRSYM    DATA     BYTE      P1M0
      WR6         REGSYM    ---      WORD      us
      REG=3       REGSYM    ---      ---       p
      WR8         REGSYM    ---      WORD      threshold
      REG=7       REGSYM    ---      ---       ccd_data
      REG=3       REGSYM    ---      ---       bin_ccd
      R10         REGSYM    ---      BYTE      i
      REG=0       REGSYM    ---      ---       ccd_data
      R9          REGSYM    ---      BYTE      i
      WR4         REGSYM    ---      WORD      value1_max
      WR6         REGSYM    ---      WORD      value1_min
      R10         REGSYM    ---      BYTE      i
      000104FCH   SYMBOL    XDATA    BYTE      count
      R15         REGSYM    ---      BYTE      i

      ---         MODULE    ---      ---       LQ_EEPROM
      000000D0H   SFRSYM    DATA     BYTE      PSW
      0000009DH   SFRSYM    DATA     BYTE      IRCBAND
      00000097H   SFRSYM    DATA     BYTE      AUXR2
      000000C7H.7 SFRSYM    DATA     BIT       IAPEN
      000000EFH   SFRSYM    DATA     BYTE      AUXINTIF
      000000FDH   SFRSYM    DATA     BYTE      S4CON
      000000ACH   SFRSYM    DATA     BYTE      S3CON
      0000009AH   SFRSYM    DATA     BYTE      S2CON
      000000B7H   SFRSYM    DATA     BYTE      IPH
      000000CDH   SFRSYM    DATA     BYTE      SPSTAT
      000000DDH   SFRSYM    DATA     BYTE      T4T3M
      000000C1H   SFRSYM    DATA     BYTE      WDT_CONTR
      000000C2H   SFRSYM    DATA     BYTE      IAP_DATA
      000000DFH   SFRSYM    DATA     BYTE      IP3
      000000F4H   SFRSYM    DATA     BYTE      USBCON
      000000B5H   SFRSYM    DATA     BYTE      IP2
      000000FFH   SFRSYM    DATA     BYTE      RSTCFG
      000000C7H   SFRSYM    DATA     BYTE      IAP_CONTR
      000000F9H   SFRSYM    DATA     BYTE      LINICR
      0000008EH   SFRSYM    DATA     BYTE      AUXR
      000000AFH   SFRSYM    DATA     BYTE      IE2
      00000088H   SFRSYM    DATA     BYTE      TCON
      00000089H   SFRSYM    DATA     BYTE      TMOD
      00000098H   SFRSYM    DATA     BYTE      SCON
      000000F5H   SFRSYM    DATA     BYTE      IAP_TPS
      000000F1H   SFRSYM    DATA     BYTE      CANICR
      00000087H   SFRSYM    DATA     BYTE      PCON
      000000BCH   SFRSYM    DATA     BYTE      ADC_CONTR
      000000D1H   SFRSYM    DATA     BYTE      PSW1
L251 LINKER/LOCATER V4.66.93.0                                                        03/28/2026  21:02:40  PAGE 40


      000000E7H   SFRSYM    DATA     BYTE      CMPCR2
      000000E6H   SFRSYM    DATA     BYTE      CMPCR1
      000000C4H   SFRSYM    DATA     BYTE      IAP_ADDRL
      000000C3H   SFRSYM    DATA     BYTE      IAP_ADDRH
      000000F6H   SFRSYM    DATA     BYTE      IAP_ADDRE
      000000DEH   SFRSYM    DATA     BYTE      ADCCFG
      000000B8H   SFRSYM    DATA     BYTE      IP
      0000008FH   SFRSYM    DATA     BYTE      INTCLKO
      000000EEH   SFRSYM    DATA     BYTE      IP3H
      000000B6H   SFRSYM    DATA     BYTE      IP2H
      000000C5H   SFRSYM    DATA     BYTE      IAP_CMD
      000000BFH   SFRSYM    DATA     BYTE      P_SW4
      000000A8H   SFRSYM    DATA     BYTE      IE
      000000BBH   SFRSYM    DATA     BYTE      P_SW3
      000000BAH   SFRSYM    DATA     BYTE      P_SW2
      000000A2H   SFRSYM    DATA     BYTE      P_SW1
      000000CEH   SFRSYM    DATA     BYTE      SPCTL
      000000F8H   SFRSYM    DATA     BYTE      P7
      000000E8H   SFRSYM    DATA     BYTE      P6
      000000C8H   SFRSYM    DATA     BYTE      P5
      000000C0H   SFRSYM    DATA     BYTE      P4
      000000ABH   SFRSYM    DATA     BYTE      WKTCH
      000000B0H   SFRSYM    DATA     BYTE      P3
      000000A0H   SFRSYM    DATA     BYTE      P2
      00000090H   SFRSYM    DATA     BYTE      P1
      00000080H   SFRSYM    DATA     BYTE      P0
      00FF6D55H   SYMBOL    HCONST   ---       ?tpl?0001
      00FF6D6DH   SYMBOL    HCONST   ---       ?tpl?0002
      00FF6D85H   SYMBOL    HCONST   ---       ?tpl?0003
      WR8         REGSYM    ---      INT       ID_addr
      WR4         REGSYM    ---      WORD      u16data
      WR4         REGSYM    ---      INT       ID_addr
      DR0         REGSYM    ---      DWORD     eeprom_addr
      R15         REGSYM    ---      BYTE      Byte_data
      DR0         REGSYM    ---      DWORD     eeprom_addr
      R15         REGSYM    ---      BYTE      OenByte
      DR0         REGSYM    ---      DWORD     eeprom_addr
      R15         REGSYM    ---      CHAR      OenByte
      DR12        REGSYM    ---      DWORD     eeprom_addr
      DR12        REGSYM    ---      DWORD     eeprom_addr
      DR12        REGSYM    ---      DWORD     eeprom_addr
      DR12        REGSYM    ---      DWORD     eeprom_addr
      DR0         REGSYM    ---      DWORD     eeprom_addr
      R15         REGSYM    ---      CHAR      i
      WR12        REGSYM    ---      WORD      temps

      ---         MODULE    ---      ---       LQ_Encoder
      00FF57ADH   PUBLIC    CODE     ---       Timer_EncInit
      00FF5009H   PUBLIC    CODE     ---       Read_Encoder
      000000D0H   SFRSYM    DATA     BYTE      PSW
      0000009DH   SFRSYM    DATA     BYTE      IRCBAND
      00000097H   SFRSYM    DATA     BYTE      AUXR2
      000000EFH   SFRSYM    DATA     BYTE      AUXINTIF
      000000FDH   SFRSYM    DATA     BYTE      S4CON
      000000ACH   SFRSYM    DATA     BYTE      S3CON
      0000009AH   SFRSYM    DATA     BYTE      S2CON
      000000B7H   SFRSYM    DATA     BYTE      IPH
      000000CDH   SFRSYM    DATA     BYTE      SPSTAT
      000000DDH   SFRSYM    DATA     BYTE      T4T3M
      000000C1H   SFRSYM    DATA     BYTE      WDT_CONTR
      000000D3H   SFRSYM    DATA     BYTE      T4L
      000000D5H   SFRSYM    DATA     BYTE      T3L
      000000D2H   SFRSYM    DATA     BYTE      T4H
      000000D4H   SFRSYM    DATA     BYTE      T3H
      000000DFH   SFRSYM    DATA     BYTE      IP3
L251 LINKER/LOCATER V4.66.93.0                                                        03/28/2026  21:02:40  PAGE 41


      000000F4H   SFRSYM    DATA     BYTE      USBCON
      000000B5H   SFRSYM    DATA     BYTE      IP2
      000000FFH   SFRSYM    DATA     BYTE      RSTCFG
      000000C7H   SFRSYM    DATA     BYTE      IAP_CONTR
      000000F9H   SFRSYM    DATA     BYTE      LINICR
      0000008EH   SFRSYM    DATA     BYTE      AUXR
      000000AFH   SFRSYM    DATA     BYTE      IE2
      00000080H.7 SFRSYM    DATA     BIT       P07
      00000080H.5 SFRSYM    DATA     BIT       P05
      00000088H   SFRSYM    DATA     BYTE      TCON
      00000089H   SFRSYM    DATA     BYTE      TMOD
      00000098H   SFRSYM    DATA     BYTE      SCON
      000000F1H   SFRSYM    DATA     BYTE      CANICR
      00000087H   SFRSYM    DATA     BYTE      PCON
      000000BCH   SFRSYM    DATA     BYTE      ADC_CONTR
      000000D1H   SFRSYM    DATA     BYTE      PSW1
      000000E7H   SFRSYM    DATA     BYTE      CMPCR2
      000000E6H   SFRSYM    DATA     BYTE      CMPCR1
      000000DEH   SFRSYM    DATA     BYTE      ADCCFG
      000000B8H   SFRSYM    DATA     BYTE      IP
      0000008FH   SFRSYM    DATA     BYTE      INTCLKO
      000000EEH   SFRSYM    DATA     BYTE      IP3H
      000000B6H   SFRSYM    DATA     BYTE      IP2H
      000000BFH   SFRSYM    DATA     BYTE      P_SW4
      000000A8H   SFRSYM    DATA     BYTE      IE
      000000BBH   SFRSYM    DATA     BYTE      P_SW3
      000000BAH   SFRSYM    DATA     BYTE      P_SW2
      000000A2H   SFRSYM    DATA     BYTE      P_SW1
      000000CEH   SFRSYM    DATA     BYTE      SPCTL
      000000F8H   SFRSYM    DATA     BYTE      P7
      000000E8H   SFRSYM    DATA     BYTE      P6
      000000C8H   SFRSYM    DATA     BYTE      P5
      000000C0H   SFRSYM    DATA     BYTE      P4
      000000ABH   SFRSYM    DATA     BYTE      WKTCH
      000000B0H   SFRSYM    DATA     BYTE      P3
      000000A0H   SFRSYM    DATA     BYTE      P2
      00000090H   SFRSYM    DATA     BYTE      P1
      00000080H   SFRSYM    DATA     BYTE      P0

      00FF5009H   BLOCK     CODE     ---       LVL=0
      R3          REGSYM    ---      BYTE      encno
      00FF500BH   BLOCK     CODE     NEAR LAB  LVL=1
      DR4         REGSYM    ---      LONG      tm
      ---         BLOCKEND  ---      ---       LVL=1
      00FF5009H   LINE      CODE     ---       #25
      00FF500BH   LINE      CODE     ---       #26
      00FF500BH   LINE      CODE     ---       #27
      00FF500DH   LINE      CODE     ---       #29
      00FF5011H   LINE      CODE     ---       #31
      00FF5017H   LINE      CODE     ---       #32
      00FF501AH   LINE      CODE     ---       #33
      00FF502AH   LINE      CODE     ---       #35
      00FF5044H   LINE      CODE     ---       #37
      00FF5047H   LINE      CODE     ---       #38
      00FF504AH   LINE      CODE     ---       #39
      00FF504DH   LINE      CODE     ---       #40
      00FF5050H   LINE      CODE     ---       #41
      00FF5051H   LINE      CODE     ---       #42
      00FF5055H   LINE      CODE     ---       #44
      00FF5058H   LINE      CODE     ---       #45
      00FF505EH   LINE      CODE     ---       #46
      00FF5061H   LINE      CODE     ---       #47
      00FF5071H   LINE      CODE     ---       #49
      00FF508BH   LINE      CODE     ---       #52
      00FF508EH   LINE      CODE     ---       #53
L251 LINKER/LOCATER V4.66.93.0                                                        03/28/2026  21:02:40  PAGE 42


      00FF5091H   LINE      CODE     ---       #54
      00FF5094H   LINE      CODE     ---       #55
      00FF5094H   LINE      CODE     ---       #56
      00FF5094H   LINE      CODE     ---       #57
      ---         BLOCKEND  ---      ---       LVL=0

      00FF57ADH   BLOCK     CODE     ---       LVL=0
      R7          REGSYM    ---      BYTE      tim_x
      00FF57ADH   LINE      CODE     ---       #67
      00FF57AFH   LINE      CODE     ---       #85
      00FF57B3H   LINE      CODE     ---       #87
      00FF57B9H   LINE      CODE     ---       #88
      00FF57BCH   LINE      CODE     ---       #89
      00FF57BDH   LINE      CODE     ---       #90
      00FF57C1H   LINE      CODE     ---       #92
      00FF57C7H   LINE      CODE     ---       #93
      00FF57CAH   LINE      CODE     ---       #94
      00FF57CBH   LINE      CODE     ---       #95
      00FF57CFH   LINE      CODE     ---       #97
      00FF57D5H   LINE      CODE     ---       #98
      00FF57DBH   LINE      CODE     ---       #99
      00FF57DEH   LINE      CODE     ---       #100
      ---         BLOCKEND  ---      ---       LVL=0
      WR14        REGSYM    ---      INT       enc1
      WR12        REGSYM    ---      INT       enc2

      ---         MODULE    ---      ---       LQ_GPIO
      00FF2787H   PUBLIC    CODE     ---       GPIO_InitConfig
      00000094H   SFRSYM    DATA     BYTE      P0M0
      000000D0H   SFRSYM    DATA     BYTE      PSW
      0000009DH   SFRSYM    DATA     BYTE      IRCBAND
      00000097H   SFRSYM    DATA     BYTE      AUXR2
      000000EFH   SFRSYM    DATA     BYTE      AUXINTIF
      000000FDH   SFRSYM    DATA     BYTE      S4CON
      000000ACH   SFRSYM    DATA     BYTE      S3CON
      0000009AH   SFRSYM    DATA     BYTE      S2CON
      000000B7H   SFRSYM    DATA     BYTE      IPH
      000000CDH   SFRSYM    DATA     BYTE      SPSTAT
      000000DDH   SFRSYM    DATA     BYTE      T4T3M
      000000C1H   SFRSYM    DATA     BYTE      WDT_CONTR
      000000DFH   SFRSYM    DATA     BYTE      IP3
      000000F4H   SFRSYM    DATA     BYTE      USBCON
      000000B5H   SFRSYM    DATA     BYTE      IP2
      000000FFH   SFRSYM    DATA     BYTE      RSTCFG
      000000C7H   SFRSYM    DATA     BYTE      IAP_CONTR
      000000F9H   SFRSYM    DATA     BYTE      LINICR
      0000008EH   SFRSYM    DATA     BYTE      AUXR
      000000AFH   SFRSYM    DATA     BYTE      IE2
      00000088H   SFRSYM    DATA     BYTE      TCON
      00000089H   SFRSYM    DATA     BYTE      TMOD
      00000098H   SFRSYM    DATA     BYTE      SCON
      000000F1H   SFRSYM    DATA     BYTE      CANICR
      00000087H   SFRSYM    DATA     BYTE      PCON
      000000BCH   SFRSYM    DATA     BYTE      ADC_CONTR
      000000D1H   SFRSYM    DATA     BYTE      PSW1
      000000E7H   SFRSYM    DATA     BYTE      CMPCR2
      000000E6H   SFRSYM    DATA     BYTE      CMPCR1
      000000DEH   SFRSYM    DATA     BYTE      ADCCFG
      000000B8H   SFRSYM    DATA     BYTE      IP
      0000008FH   SFRSYM    DATA     BYTE      INTCLKO
      000000EEH   SFRSYM    DATA     BYTE      IP3H
      000000B6H   SFRSYM    DATA     BYTE      IP2H
      000000BFH   SFRSYM    DATA     BYTE      P_SW4
      000000A8H   SFRSYM    DATA     BYTE      IE
      000000BBH   SFRSYM    DATA     BYTE      P_SW3
L251 LINKER/LOCATER V4.66.93.0                                                        03/28/2026  21:02:40  PAGE 43


      000000BAH   SFRSYM    DATA     BYTE      P_SW2
      000000A2H   SFRSYM    DATA     BYTE      P_SW1
      000000CEH   SFRSYM    DATA     BYTE      SPCTL
      000000F8H   SFRSYM    DATA     BYTE      P7
      000000E1H   SFRSYM    DATA     BYTE      P7M1
      000000E8H   SFRSYM    DATA     BYTE      P6
      000000C8H   SFRSYM    DATA     BYTE      P5
      000000CBH   SFRSYM    DATA     BYTE      P6M1
      000000E2H   SFRSYM    DATA     BYTE      P7M0
      000000C0H   SFRSYM    DATA     BYTE      P4
      000000C9H   SFRSYM    DATA     BYTE      P5M1
      000000CCH   SFRSYM    DATA     BYTE      P6M0
      000000ABH   SFRSYM    DATA     BYTE      WKTCH
      000000B0H   SFRSYM    DATA     BYTE      P3
      000000B3H   SFRSYM    DATA     BYTE      P4M1
      000000CAH   SFRSYM    DATA     BYTE      P5M0
      000000A0H   SFRSYM    DATA     BYTE      P2
      000000B1H   SFRSYM    DATA     BYTE      P3M1
      000000B4H   SFRSYM    DATA     BYTE      P4M0
      00000090H   SFRSYM    DATA     BYTE      P1
      000000B2H   SFRSYM    DATA     BYTE      P3M0
      00000080H   SFRSYM    DATA     BYTE      P0
      00000091H   SFRSYM    DATA     BYTE      P1M1
      00000092H   SFRSYM    DATA     BYTE      P1M0
      00000093H   SFRSYM    DATA     BYTE      P0M1

      00FF2787H   BLOCK     CODE     ---       LVL=0
      WR6         REGSYM    ---      INT       Pin_x
      WR4         REGSYM    ---      INT       Mode_e
      R2          REGSYM    ---      BYTE      GPIO_Port_n
      R3          REGSYM    ---      BYTE      GPIO_Pin_n
      00FF2787H   LINE      CODE     ---       #28
      00FF2787H   LINE      CODE     ---       #29
      00FF2787H   LINE      CODE     ---       #32
      00FF278EH   LINE      CODE     ---       #33
      00FF2791H   LINE      CODE     ---       #35
      00FF2878H   LINE      CODE     ---       #37
      00FF2878H   LINE      CODE     ---       #38
      00FF2894H   LINE      CODE     ---       #39
      00FF28B1H   LINE      CODE     ---       #40
      00FF28CCH   LINE      CODE     ---       #41
      00FF28E8H   LINE      CODE     ---       #42
      00FF28E9H   LINE      CODE     ---       #44
      00FF28E9H   LINE      CODE     ---       #45
      00FF2905H   LINE      CODE     ---       #46
      00FF2922H   LINE      CODE     ---       #47
      00FF293DH   LINE      CODE     ---       #48
      00FF2959H   LINE      CODE     ---       #49
      00FF295AH   LINE      CODE     ---       #51
      00FF295AH   LINE      CODE     ---       #52
      00FF2976H   LINE      CODE     ---       #53
      00FF2993H   LINE      CODE     ---       #54
      00FF29AEH   LINE      CODE     ---       #55
      00FF29C7H   LINE      CODE     ---       #56
      00FF29CAH   LINE      CODE     ---       #58
      00FF29CAH   LINE      CODE     ---       #59
      00FF29E6H   LINE      CODE     ---       #60
      00FF2A03H   LINE      CODE     ---       #61
      00FF2A1EH   LINE      CODE     ---       #62
      00FF2A3AH   LINE      CODE     ---       #63
      00FF2A3BH   LINE      CODE     ---       #65
      00FF2A3BH   LINE      CODE     ---       #66
      00FF2A57H   LINE      CODE     ---       #67
      00FF2A74H   LINE      CODE     ---       #68
      00FF2A8FH   LINE      CODE     ---       #69
L251 LINKER/LOCATER V4.66.93.0                                                        03/28/2026  21:02:40  PAGE 44


      00FF2AABH   LINE      CODE     ---       #70
      00FF2AACH   LINE      CODE     ---       #72
      00FF2AACH   LINE      CODE     ---       #73
      00FF2AC8H   LINE      CODE     ---       #74
      00FF2AE5H   LINE      CODE     ---       #75
      00FF2B00H   LINE      CODE     ---       #76
      00FF2B1CH   LINE      CODE     ---       #77
      00FF2B1DH   LINE      CODE     ---       #79
      00FF2B1DH   LINE      CODE     ---       #80
      00FF2B39H   LINE      CODE     ---       #81
      00FF2B56H   LINE      CODE     ---       #82
      00FF2B71H   LINE      CODE     ---       #83
      00FF2B8DH   LINE      CODE     ---       #84
      00FF2B8EH   LINE      CODE     ---       #86
      00FF2B8EH   LINE      CODE     ---       #87
      00FF2BAAH   LINE      CODE     ---       #88
      00FF2BC7H   LINE      CODE     ---       #89
      00FF2BE2H   LINE      CODE     ---       #90
      00FF2BFBH   LINE      CODE     ---       #91
      00FF2BFBH   LINE      CODE     ---       #92
      00FF2BFBH   LINE      CODE     ---       #94
      ---         BLOCKEND  ---      ---       LVL=0
      R11         REGSYM    ---      BYTE      GPIO_PinS
      WR4         REGSYM    ---      INT       Pin_x
      WR4         REGSYM    ---      INT       Pin_x

      ---         MODULE    ---      ---       LQ_GPIO_LED
      00FF54E6H   PUBLIC    CODE     ---       LED_Ctrl
      00FF5B64H   PUBLIC    CODE     ---       GPIO_LED_Init
      000000D0H   SFRSYM    DATA     BYTE      PSW
      0000009DH   SFRSYM    DATA     BYTE      IRCBAND
      00000097H   SFRSYM    DATA     BYTE      AUXR2
      000000EFH   SFRSYM    DATA     BYTE      AUXINTIF
      000000FDH   SFRSYM    DATA     BYTE      S4CON
      000000ACH   SFRSYM    DATA     BYTE      S3CON
      0000009AH   SFRSYM    DATA     BYTE      S2CON
      000000B7H   SFRSYM    DATA     BYTE      IPH
      000000CDH   SFRSYM    DATA     BYTE      SPSTAT
      000000DDH   SFRSYM    DATA     BYTE      T4T3M
      000000C1H   SFRSYM    DATA     BYTE      WDT_CONTR
      000000DFH   SFRSYM    DATA     BYTE      IP3
      000000F4H   SFRSYM    DATA     BYTE      USBCON
      000000B5H   SFRSYM    DATA     BYTE      IP2
      000000FFH   SFRSYM    DATA     BYTE      RSTCFG
      000000C7H   SFRSYM    DATA     BYTE      IAP_CONTR
      000000F9H   SFRSYM    DATA     BYTE      LINICR
      0000008EH   SFRSYM    DATA     BYTE      AUXR
      000000AFH   SFRSYM    DATA     BYTE      IE2
      000000B0H.5 SFRSYM    DATA     BIT       P35
      00000088H   SFRSYM    DATA     BYTE      TCON
      00000089H   SFRSYM    DATA     BYTE      TMOD
      00000098H   SFRSYM    DATA     BYTE      SCON
      00000080H.3 SFRSYM    DATA     BIT       P03
      000000F1H   SFRSYM    DATA     BYTE      CANICR
      00000087H   SFRSYM    DATA     BYTE      PCON
      000000BCH   SFRSYM    DATA     BYTE      ADC_CONTR
      000000D1H   SFRSYM    DATA     BYTE      PSW1
      000000E7H   SFRSYM    DATA     BYTE      CMPCR2
      000000E6H   SFRSYM    DATA     BYTE      CMPCR1
      000000DEH   SFRSYM    DATA     BYTE      ADCCFG
      000000B8H   SFRSYM    DATA     BYTE      IP
      0000008FH   SFRSYM    DATA     BYTE      INTCLKO
      000000EEH   SFRSYM    DATA     BYTE      IP3H
      000000B6H   SFRSYM    DATA     BYTE      IP2H
      000000BFH   SFRSYM    DATA     BYTE      P_SW4
L251 LINKER/LOCATER V4.66.93.0                                                        03/28/2026  21:02:40  PAGE 45


      000000A8H   SFRSYM    DATA     BYTE      IE
      000000BBH   SFRSYM    DATA     BYTE      P_SW3
      000000BAH   SFRSYM    DATA     BYTE      P_SW2
      000000A2H   SFRSYM    DATA     BYTE      P_SW1
      000000CEH   SFRSYM    DATA     BYTE      SPCTL
      000000F8H   SFRSYM    DATA     BYTE      P7
      000000E8H   SFRSYM    DATA     BYTE      P6
      000000C8H   SFRSYM    DATA     BYTE      P5
      000000C0H   SFRSYM    DATA     BYTE      P4
      000000ABH   SFRSYM    DATA     BYTE      WKTCH
      000000B0H   SFRSYM    DATA     BYTE      P3
      000000A0H   SFRSYM    DATA     BYTE      P2
      000000B1H   SFRSYM    DATA     BYTE      P3M1
      00000090H   SFRSYM    DATA     BYTE      P1
      000000B2H   SFRSYM    DATA     BYTE      P3M0
      00000080H   SFRSYM    DATA     BYTE      P0

      00FF5B64H   BLOCK     CODE     ---       LVL=0
      00FF5B64H   LINE      CODE     ---       #27
      00FF5B64H   LINE      CODE     ---       #38
      00FF5B6AH   LINE      CODE     ---       #40
      00FF5B75H   LINE      CODE     ---       #42
      00FF5B77H   LINE      CODE     ---       #43
      00FF5B79H   LINE      CODE     ---       #44
      ---         BLOCKEND  ---      ---       LVL=0

      00FF54E6H   BLOCK     CODE     ---       LVL=0
      WR6         REGSYM    ---      INT       ledp
      WR4         REGSYM    ---      INT       sta
      00FF54E6H   LINE      CODE     ---       #56
      00FF54E6H   LINE      CODE     ---       #58
      00FF54EEH   LINE      CODE     ---       #60
      00FF54EEH   LINE      CODE     ---       #61
      00FF54F5H   LINE      CODE     ---       #62
      00FF54FEH   LINE      CODE     ---       #63
      00FF550DH   LINE      CODE     ---       #64
      00FF550EH   LINE      CODE     ---       #65
      00FF550EH   LINE      CODE     ---       #66
      00FF5515H   LINE      CODE     ---       #67
      00FF551EH   LINE      CODE     ---       #68
      00FF552DH   LINE      CODE     ---       #69
      00FF552DH   LINE      CODE     ---       #70
      00FF552DH   LINE      CODE     ---       #71
      00FF552DH   LINE      CODE     ---       #72
      00FF552DH   LINE      CODE     ---       #73
      ---         BLOCKEND  ---      ---       LVL=0

      ---         MODULE    ---      ---       LQ_HSPI
      000000D0H   SFRSYM    DATA     BYTE      PSW
      0000009DH   SFRSYM    DATA     BYTE      IRCBAND
      00000097H   SFRSYM    DATA     BYTE      AUXR2
      000000EFH   SFRSYM    DATA     BYTE      AUXINTIF
      000000FDH   SFRSYM    DATA     BYTE      S4CON
      000000ACH   SFRSYM    DATA     BYTE      S3CON
      0000009AH   SFRSYM    DATA     BYTE      S2CON
      000000B7H   SFRSYM    DATA     BYTE      IPH
      000000CDH   SFRSYM    DATA     BYTE      SPSTAT
      000000DDH   SFRSYM    DATA     BYTE      T4T3M
      000000C1H   SFRSYM    DATA     BYTE      WDT_CONTR
      000000DFH   SFRSYM    DATA     BYTE      IP3
      000000F4H   SFRSYM    DATA     BYTE      USBCON
      000000B5H   SFRSYM    DATA     BYTE      IP2
      000000FFH   SFRSYM    DATA     BYTE      RSTCFG
      000000C7H   SFRSYM    DATA     BYTE      IAP_CONTR
      000000F9H   SFRSYM    DATA     BYTE      LINICR
L251 LINKER/LOCATER V4.66.93.0                                                        03/28/2026  21:02:40  PAGE 46


      0000008EH   SFRSYM    DATA     BYTE      AUXR
      000000AFH   SFRSYM    DATA     BYTE      IE2
      00000088H   SFRSYM    DATA     BYTE      TCON
      00000089H   SFRSYM    DATA     BYTE      TMOD
      00000098H   SFRSYM    DATA     BYTE      SCON
      000000F1H   SFRSYM    DATA     BYTE      CANICR
      00000087H   SFRSYM    DATA     BYTE      PCON
      000000BCH   SFRSYM    DATA     BYTE      ADC_CONTR
      000000D1H   SFRSYM    DATA     BYTE      PSW1
      000000E7H   SFRSYM    DATA     BYTE      CMPCR2
      000000E6H   SFRSYM    DATA     BYTE      CMPCR1
      000000DEH   SFRSYM    DATA     BYTE      ADCCFG
      000000B8H   SFRSYM    DATA     BYTE      IP
      0000008FH   SFRSYM    DATA     BYTE      INTCLKO
      000000EEH   SFRSYM    DATA     BYTE      IP3H
      000000B6H   SFRSYM    DATA     BYTE      IP2H
      000000BFH   SFRSYM    DATA     BYTE      P_SW4
      000000A8H   SFRSYM    DATA     BYTE      IE
      000000BBH   SFRSYM    DATA     BYTE      P_SW3
      000000BAH   SFRSYM    DATA     BYTE      P_SW2
      000000A2H   SFRSYM    DATA     BYTE      P_SW1
      000000CEH   SFRSYM    DATA     BYTE      SPCTL
      000000F8H   SFRSYM    DATA     BYTE      P7
      000000C0H.0 SFRSYM    DATA     BIT       SPI_SS_3
      000000E8H   SFRSYM    DATA     BYTE      P6
      000000C8H   SFRSYM    DATA     BYTE      P5
      000000C0H   SFRSYM    DATA     BYTE      P4
      000000ABH   SFRSYM    DATA     BYTE      WKTCH
      000000B0H   SFRSYM    DATA     BYTE      P3
      000000A0H   SFRSYM    DATA     BYTE      P2
      00000090H   SFRSYM    DATA     BYTE      P1
      00000080H   SFRSYM    DATA     BYTE      P0
      R7          REGSYM    ---      BYTE      addr
      REG=3       REGSYM    ---      ---       buffer
      R7          REGSYM    ---      BYTE      addr
      REG=3       REGSYM    ---      ---       buffer

      ---         MODULE    ---      ---       LQ_I2C_VL53
      0001061BH   PUBLIC    XDATA    BYTE      VL53_STAR
      000000D0H   SFRSYM    DATA     BYTE      PSW
      0000009DH   SFRSYM    DATA     BYTE      IRCBAND
      00000097H   SFRSYM    DATA     BYTE      AUXR2
      000000EFH   SFRSYM    DATA     BYTE      AUXINTIF
      000000FDH   SFRSYM    DATA     BYTE      S4CON
      000000ACH   SFRSYM    DATA     BYTE      S3CON
      0000009AH   SFRSYM    DATA     BYTE      S2CON
      000000B7H   SFRSYM    DATA     BYTE      IPH
      000000CDH   SFRSYM    DATA     BYTE      SPSTAT
      000000DDH   SFRSYM    DATA     BYTE      T4T3M
      000000C1H   SFRSYM    DATA     BYTE      WDT_CONTR
      000000DFH   SFRSYM    DATA     BYTE      IP3
      000000F4H   SFRSYM    DATA     BYTE      USBCON
      000000B5H   SFRSYM    DATA     BYTE      IP2
      000000FFH   SFRSYM    DATA     BYTE      RSTCFG
      000000C7H   SFRSYM    DATA     BYTE      IAP_CONTR
      000000F9H   SFRSYM    DATA     BYTE      LINICR
      0000008EH   SFRSYM    DATA     BYTE      AUXR
      000000AFH   SFRSYM    DATA     BYTE      IE2
      00000088H   SFRSYM    DATA     BYTE      TCON
      00000089H   SFRSYM    DATA     BYTE      TMOD
      00000098H   SFRSYM    DATA     BYTE      SCON
      000000F1H   SFRSYM    DATA     BYTE      CANICR
      00000087H   SFRSYM    DATA     BYTE      PCON
      000000BCH   SFRSYM    DATA     BYTE      ADC_CONTR
      000000D1H   SFRSYM    DATA     BYTE      PSW1
L251 LINKER/LOCATER V4.66.93.0                                                        03/28/2026  21:02:40  PAGE 47


      000000E7H   SFRSYM    DATA     BYTE      CMPCR2
      000000E6H   SFRSYM    DATA     BYTE      CMPCR1
      000000DEH   SFRSYM    DATA     BYTE      ADCCFG
      000000B8H   SFRSYM    DATA     BYTE      IP
      0000008FH   SFRSYM    DATA     BYTE      INTCLKO
      000000EEH   SFRSYM    DATA     BYTE      IP3H
      000000B6H   SFRSYM    DATA     BYTE      IP2H
      000000BFH   SFRSYM    DATA     BYTE      P_SW4
      000000A8H   SFRSYM    DATA     BYTE      IE
      000000BBH   SFRSYM    DATA     BYTE      P_SW3
      000000BAH   SFRSYM    DATA     BYTE      P_SW2
      000000A2H   SFRSYM    DATA     BYTE      P_SW1
      000000CEH   SFRSYM    DATA     BYTE      SPCTL
      000000F8H   SFRSYM    DATA     BYTE      P7
      000000E8H   SFRSYM    DATA     BYTE      P6
      000000C8H   SFRSYM    DATA     BYTE      P5
      000000C0H   SFRSYM    DATA     BYTE      P4
      000000ABH   SFRSYM    DATA     BYTE      WKTCH
      000000B0H   SFRSYM    DATA     BYTE      P3
      000000A0H   SFRSYM    DATA     BYTE      P2
      00000090H   SFRSYM    DATA     BYTE      P1
      00000080H   SFRSYM    DATA     BYTE      P0
      00FF703EH   SYMBOL    HCONST   ---       ?tpl?0001
      R5          REGSYM    ---      BYTE      dev
      R7          REGSYM    ---      BYTE      reg
      R6          REGSYM    ---      BYTE      val
      R5          REGSYM    ---      BYTE      dev
      R7          REGSYM    ---      BYTE      reg
      R6          REGSYM    ---      BYTE      length
      REG=7       REGSYM    ---      ---       val
      WR12        REGSYM    ---      WORD      dis
      WR14        REGSYM    ---      WORD      last_dis

      ---         MODULE    ---      ---       LQ_KEY
      00FF56CFH   PUBLIC    CODE     ---       KEY_Read
      000000D0H   SFRSYM    DATA     BYTE      PSW
      0000009DH   SFRSYM    DATA     BYTE      IRCBAND
      00000097H   SFRSYM    DATA     BYTE      AUXR2
      000000EFH   SFRSYM    DATA     BYTE      AUXINTIF
      000000FDH   SFRSYM    DATA     BYTE      S4CON
      000000ACH   SFRSYM    DATA     BYTE      S3CON
      0000009AH   SFRSYM    DATA     BYTE      S2CON
      000000B7H   SFRSYM    DATA     BYTE      IPH
      000000CDH   SFRSYM    DATA     BYTE      SPSTAT
      000000DDH   SFRSYM    DATA     BYTE      T4T3M
      000000C1H   SFRSYM    DATA     BYTE      WDT_CONTR
      000000DFH   SFRSYM    DATA     BYTE      IP3
      000000F4H   SFRSYM    DATA     BYTE      USBCON
      000000B5H   SFRSYM    DATA     BYTE      IP2
      000000FFH   SFRSYM    DATA     BYTE      RSTCFG
      000000C7H   SFRSYM    DATA     BYTE      IAP_CONTR
      000000F9H   SFRSYM    DATA     BYTE      LINICR
      0000008EH   SFRSYM    DATA     BYTE      AUXR
      000000AFH   SFRSYM    DATA     BYTE      IE2
      000000C8H.7 SFRSYM    DATA     BIT       P57
      000000C8H.6 SFRSYM    DATA     BIT       P56
      000000C0H.6 SFRSYM    DATA     BIT       P46
      000000A0H.7 SFRSYM    DATA     BIT       P27
      000000C0H.5 SFRSYM    DATA     BIT       P45
      000000B0H.3 SFRSYM    DATA     BIT       P33
      00000088H   SFRSYM    DATA     BYTE      TCON
      00000089H   SFRSYM    DATA     BYTE      TMOD
      00000098H   SFRSYM    DATA     BYTE      SCON
      000000F1H   SFRSYM    DATA     BYTE      CANICR
      00000087H   SFRSYM    DATA     BYTE      PCON
L251 LINKER/LOCATER V4.66.93.0                                                        03/28/2026  21:02:40  PAGE 48


      000000BCH   SFRSYM    DATA     BYTE      ADC_CONTR
      000000D1H   SFRSYM    DATA     BYTE      PSW1
      000000E7H   SFRSYM    DATA     BYTE      CMPCR2
      000000E6H   SFRSYM    DATA     BYTE      CMPCR1
      000000DEH   SFRSYM    DATA     BYTE      ADCCFG
      000000B8H   SFRSYM    DATA     BYTE      IP
      0000008FH   SFRSYM    DATA     BYTE      INTCLKO
      000000EEH   SFRSYM    DATA     BYTE      IP3H
      000000B6H   SFRSYM    DATA     BYTE      IP2H
      000000BFH   SFRSYM    DATA     BYTE      P_SW4
      000000A8H   SFRSYM    DATA     BYTE      IE
      000000BBH   SFRSYM    DATA     BYTE      P_SW3
      000000BAH   SFRSYM    DATA     BYTE      P_SW2
      000000A2H   SFRSYM    DATA     BYTE      P_SW1
      000000CEH   SFRSYM    DATA     BYTE      SPCTL
      000000F8H   SFRSYM    DATA     BYTE      P7
      000000E8H   SFRSYM    DATA     BYTE      P6
      000000C8H   SFRSYM    DATA     BYTE      P5
      000000C0H   SFRSYM    DATA     BYTE      P4
      000000C9H   SFRSYM    DATA     BYTE      P5M1
      000000ABH   SFRSYM    DATA     BYTE      WKTCH
      000000B0H   SFRSYM    DATA     BYTE      P3
      000000B3H   SFRSYM    DATA     BYTE      P4M1
      000000CAH   SFRSYM    DATA     BYTE      P5M0
      000000A0H   SFRSYM    DATA     BYTE      P2
      000000B4H   SFRSYM    DATA     BYTE      P4M0
      00000090H   SFRSYM    DATA     BYTE      P1
      00000095H   SFRSYM    DATA     BYTE      P2M1
      00000080H   SFRSYM    DATA     BYTE      P0
      00000096H   SFRSYM    DATA     BYTE      P2M0

      00FF56CFH   BLOCK     CODE     ---       LVL=0
      WR6         REGSYM    ---      INT       KEYno
      00FF56CFH   LINE      CODE     ---       #56
      00FF56CFH   LINE      CODE     ---       #58
      00FF56E9H   LINE      CODE     ---       #60
      00FF56EEH   LINE      CODE     ---       #61
      00FF56EEH   LINE      CODE     ---       #62
      00FF56F3H   LINE      CODE     ---       #63
      00FF56F3H   LINE      CODE     ---       #64
      00FF56F8H   LINE      CODE     ---       #65
      00FF56F8H   LINE      CODE     ---       #67
      00FF56FDH   LINE      CODE     ---       #68
      00FF56FDH   LINE      CODE     ---       #69
      00FF5702H   LINE      CODE     ---       #70
      00FF5702H   LINE      CODE     ---       #72
      00FF5707H   LINE      CODE     ---       #73
      00FF5707H   LINE      CODE     ---       #74
      00FF5707H   LINE      CODE     ---       #75
      00FF5709H   LINE      CODE     ---       #76
      00FF5709H   LINE      CODE     ---       #77
      00FF5709H   LINE      CODE     ---       #78
      ---         BLOCKEND  ---      ---       LVL=0
      R10         REGSYM    ---      BYTE      tm
      R7          REGSYM    ---      BYTE      k0
      R6          REGSYM    ---      BYTE      k1
      R10         REGSYM    ---      BYTE      k2
      R15         REGSYM    ---      BYTE      k

      ---         MODULE    ---      ---       LQ_LSM6DSR
      00FF4888H   PUBLIC    CODE     ---       LQ_SPI_LSM60DSR_Init
      00FF006EH   PUBLIC    CODE     ---       LQ_SPI_LSM60DSR_GetID
      00FF5268H   PUBLIC    CODE     ---       Gyro_LSM6DSR_LQ9AGMV_Check
      00FF00DEH   PUBLIC    CODE     ---       SPI_Mag_Read_Reg
      00FF5197H   PUBLIC    CODE     ---       SPI_Mag_Write_Reg
L251 LINKER/LOCATER V4.66.93.0                                                        03/28/2026  21:02:40  PAGE 49


      00FF4BF7H   PUBLIC    CODE     ---       LQ_SPI_LSM60DSR_Read
      00FF0006H   PUBLIC    CODE     ---       SPI_Read_buf
      00FF5B7AH   PUBLIC    CODE     ---       SPI_Read_reg
      00FF0016H   PUBLIC    CODE     ---       SPI_Write_reg
      00000022H.5 PUBLIC    BIT      BIT       LSM60D_9AGM_FLAG
      00010501H   PUBLIC    XDATA    BYTE      ?LQ_SPI_LSM60DSR_Read?BYTE
      000000D0H   SFRSYM    DATA     BYTE      PSW
      0000009DH   SFRSYM    DATA     BYTE      IRCBAND
      00000097H   SFRSYM    DATA     BYTE      AUXR2
      000000EFH   SFRSYM    DATA     BYTE      AUXINTIF
      000000FDH   SFRSYM    DATA     BYTE      S4CON
      000000ACH   SFRSYM    DATA     BYTE      S3CON
      0000009AH   SFRSYM    DATA     BYTE      S2CON
      000000B7H   SFRSYM    DATA     BYTE      IPH
      000000CDH   SFRSYM    DATA     BYTE      SPSTAT
      000000DDH   SFRSYM    DATA     BYTE      T4T3M
      000000C1H   SFRSYM    DATA     BYTE      WDT_CONTR
      000000DFH   SFRSYM    DATA     BYTE      IP3
      000000F4H   SFRSYM    DATA     BYTE      USBCON
      000000B5H   SFRSYM    DATA     BYTE      IP2
      000000FFH   SFRSYM    DATA     BYTE      RSTCFG
      000000C7H   SFRSYM    DATA     BYTE      IAP_CONTR
      000000F9H   SFRSYM    DATA     BYTE      LINICR
      0000008EH   SFRSYM    DATA     BYTE      AUXR
      000000AFH   SFRSYM    DATA     BYTE      IE2
      00000088H   SFRSYM    DATA     BYTE      TCON
      00000089H   SFRSYM    DATA     BYTE      TMOD
      00000098H   SFRSYM    DATA     BYTE      SCON
      000000F1H   SFRSYM    DATA     BYTE      CANICR
      00000087H   SFRSYM    DATA     BYTE      PCON
      000000BCH   SFRSYM    DATA     BYTE      ADC_CONTR
      000000D1H   SFRSYM    DATA     BYTE      PSW1
      000000E7H   SFRSYM    DATA     BYTE      CMPCR2
      000000E6H   SFRSYM    DATA     BYTE      CMPCR1
      000000DEH   SFRSYM    DATA     BYTE      ADCCFG
      000000B8H   SFRSYM    DATA     BYTE      IP
      0000008FH   SFRSYM    DATA     BYTE      INTCLKO
      000000EEH   SFRSYM    DATA     BYTE      IP3H
      000000B6H   SFRSYM    DATA     BYTE      IP2H
      000000BFH   SFRSYM    DATA     BYTE      P_SW4
      000000A8H   SFRSYM    DATA     BYTE      IE
      000000BBH   SFRSYM    DATA     BYTE      P_SW3
      000000BAH   SFRSYM    DATA     BYTE      P_SW2
      000000A2H   SFRSYM    DATA     BYTE      P_SW1
      000000CEH   SFRSYM    DATA     BYTE      SPCTL
      000000F8H   SFRSYM    DATA     BYTE      P7
      000000E8H   SFRSYM    DATA     BYTE      P6
      000000C8H   SFRSYM    DATA     BYTE      P5
      000000C0H   SFRSYM    DATA     BYTE      P4
      000000ABH   SFRSYM    DATA     BYTE      WKTCH
      000000B0H   SFRSYM    DATA     BYTE      P3
      000000A0H   SFRSYM    DATA     BYTE      P2
      00000090H   SFRSYM    DATA     BYTE      P1
      00000080H   SFRSYM    DATA     BYTE      P0
      R11         REGSYM    ---      BYTE      dev
      R10         REGSYM    ---      BYTE      reg
      REG=3       REGSYM    ---      ---       ay
      R15         REGSYM    ---      BYTE      res

      00FF006EH   BLOCK     CODE     ---       LVL=0
      R7          REGSYM    ---      BYTE      reg
      00010547H   SYMBOL    XDATA    BYTE      buff
      00FF006EH   LINE      CODE     ---       #108
      00FF006EH   LINE      CODE     ---       #109
      00FF006EH   LINE      CODE     ---       #113
L251 LINKER/LOCATER V4.66.93.0                                                        03/28/2026  21:02:40  PAGE 50


      00FF007DH   LINE      CODE     ---       #117
      00FF0081H   LINE      CODE     ---       #118
      ---         BLOCKEND  ---      ---       LVL=0

      00FF0016H   BLOCK     CODE     ---       LVL=0
      R11         REGSYM    ---      BYTE      reg
      R10         REGSYM    ---      BYTE      dat
      00FF0016H   LINE      CODE     ---       #121
      00FF0016H   LINE      CODE     ---       #124
      ---         BLOCKEND  ---      ---       LVL=0

      00FF5B7AH   BLOCK     CODE     ---       LVL=0
      R7          REGSYM    ---      BYTE      reg
      0001054BH   SYMBOL    XDATA    BYTE      buff
      00FF5B7AH   LINE      CODE     ---       #132
      00FF5B7AH   LINE      CODE     ---       #133
      00FF5B7AH   LINE      CODE     ---       #137
      00FF5B89H   LINE      CODE     ---       #141
      00FF5B8DH   LINE      CODE     ---       #142
      ---         BLOCKEND  ---      ---       LVL=0

      00FF0006H   BLOCK     CODE     ---       LVL=0
      R11         REGSYM    ---      BYTE      reg
      REG=7       REGSYM    ---      ---       buf
      R10         REGSYM    ---      BYTE      len
      00FF0006H   LINE      CODE     ---       #145
      00FF0006H   LINE      CODE     ---       #148
      ---         BLOCKEND  ---      ---       LVL=0

      00FF5197H   BLOCK     CODE     ---       LVL=0
      R14         REGSYM    ---      BYTE      addr
      R15         REGSYM    ---      BYTE      dat
      00FF519DH   BLOCK     CODE     NEAR LAB  LVL=1
      00010547H   SYMBOL    XDATA    DWORD     count
      ---         BLOCKEND  ---      ---       LVL=1
      00FF5197H   LINE      CODE     ---       #156
      00FF519DH   LINE      CODE     ---       #157
      00FF519DH   LINE      CODE     ---       #158
      00FF51A9H   LINE      CODE     ---       #159
      00FF51AEH   LINE      CODE     ---       #160
      00FF51B6H   LINE      CODE     ---       #161
      00FF51BDH   LINE      CODE     ---       #162
      00FF51C4H   LINE      CODE     ---       #163
      00FF51CCH   LINE      CODE     ---       #165
      00FF51CEH   LINE      CODE     ---       #167
      00FF51E9H   LINE      CODE     ---       #168
      00FF51EDH   LINE      CODE     ---       #169
      00FF51EDH   LINE      CODE     ---       #170
      00FF51F4H   LINE      CODE     ---       #171
      00FF51FCH   LINE      CODE     ---       #172
      00FF51FDH   LINE      CODE     ---       #173
      ---         BLOCKEND  ---      ---       LVL=0

      00FF00DEH   BLOCK     CODE     ---       LVL=0
      R15         REGSYM    ---      BYTE      addr
      00FF00E4H   BLOCK     CODE     NEAR LAB  LVL=1
      WR12        REGSYM    ---      WORD      count
      ---         BLOCKEND  ---      ---       LVL=1
      00FF00DEH   LINE      CODE     ---       #176
      00FF00E4H   LINE      CODE     ---       #177
      00FF00E4H   LINE      CODE     ---       #178
      00FF00E6H   LINE      CODE     ---       #179
      00FF00EEH   LINE      CODE     ---       #180
      00FF00F6H   LINE      CODE     ---       #181
      00FF00FDH   LINE      CODE     ---       #182
L251 LINKER/LOCATER V4.66.93.0                                                        03/28/2026  21:02:40  PAGE 51


      00FF0105H   LINE      CODE     ---       #183
      00FF0107H   LINE      CODE     ---       #185
      00FF0111H   LINE      CODE     ---       #186
      00FF0111H   LINE      CODE     ---       #187
      00FF0111H   LINE      CODE     ---       #188
      00FF0118H   LINE      CODE     ---       #189
      00FF0120H   LINE      CODE     ---       #190
      00FF0125H   LINE      CODE     ---       #191
      ---         BLOCKEND  ---      ---       LVL=0

      00FF5268H   BLOCK     CODE     ---       LVL=0
      00FF526AH   BLOCK     CODE     NEAR LAB  LVL=1
      R15         REGSYM    ---      BYTE      res
      R14         REGSYM    ---      BYTE      i
      ---         BLOCKEND  ---      ---       LVL=1
      00FF5268H   LINE      CODE     ---       #194
      00FF526AH   LINE      CODE     ---       #195
      00FF526AH   LINE      CODE     ---       #197
      00FF5271H   LINE      CODE     ---       #198
      00FF5278H   LINE      CODE     ---       #200
      00FF527DH   LINE      CODE     ---       #202
      00FF5280H   LINE      CODE     ---       #204
      00FF5288H   LINE      CODE     ---       #205
      00FF528FH   LINE      CODE     ---       #206
      00FF5296H   LINE      CODE     ---       #207
      00FF529DH   LINE      CODE     ---       #208
      00FF52A5H   LINE      CODE     ---       #209
      00FF52ADH   LINE      CODE     ---       #210
      00FF52B5H   LINE      CODE     ---       #212
      00FF52B8H   LINE      CODE     ---       #213
      00FF52BAH   LINE      CODE     ---       #214
      00FF52BCH   LINE      CODE     ---       #215
      00FF52C0H   LINE      CODE     ---       #217
      00FF52C7H   LINE      CODE     ---       #218
      00FF52C7H   LINE      CODE     ---       #219
      00FF52C9H   LINE      CODE     ---       #220
      ---         BLOCKEND  ---      ---       LVL=0

      00FF4888H   BLOCK     CODE     ---       LVL=0
      R11         REGSYM    ---      BYTE      res
      00FF4888H   LINE      CODE     ---       #222
      00FF4888H   LINE      CODE     ---       #223
      00FF4888H   LINE      CODE     ---       #225
      00FF4888H   LINE      CODE     ---       #227
      00FF488BH   LINE      CODE     ---       #232
      00FF4893H   LINE      CODE     ---       #233
      00FF489BH   LINE      CODE     ---       #234
      00FF48A3H   LINE      CODE     ---       #235
      00FF48ABH   LINE      CODE     ---       #236
      00FF48B3H   LINE      CODE     ---       #237
      00FF48BBH   LINE      CODE     ---       #238
      00FF48C3H   LINE      CODE     ---       #240
      00FF48CAH   LINE      CODE     ---       #241
      00FF48CDH   LINE      CODE     ---       #242
      00FF48D5H   LINE      CODE     ---       #245
      00FF48D5H   LINE      CODE     ---       #246
      00FF48DDH   LINE      CODE     ---       #249
      00FF48E5H   LINE      CODE     ---       #250
      00FF48EDH   LINE      CODE     ---       #251
      00FF48F4H   LINE      CODE     ---       #252
      00FF48FBH   LINE      CODE     ---       #253
      00FF4902H   LINE      CODE     ---       #254
      00FF490AH   LINE      CODE     ---       #255
      00FF4911H   LINE      CODE     ---       #256
      00FF4918H   LINE      CODE     ---       #257
L251 LINKER/LOCATER V4.66.93.0                                                        03/28/2026  21:02:40  PAGE 52


      00FF491FH   LINE      CODE     ---       #258
      00FF4927H   LINE      CODE     ---       #259
      00FF492FH   LINE      CODE     ---       #260
      00FF4936H   LINE      CODE     ---       #261
      00FF493DH   LINE      CODE     ---       #262
      00FF4945H   LINE      CODE     ---       #263
      00FF494DH   LINE      CODE     ---       #264
      00FF4955H   LINE      CODE     ---       #265
      00FF495DH   LINE      CODE     ---       #266
      00FF4965H   LINE      CODE     ---       #267
      00FF496DH   LINE      CODE     ---       #268
      00FF4974H   LINE      CODE     ---       #270
      ---         BLOCKEND  ---      ---       LVL=0

      00FF4BF7H   BLOCK     CODE     ---       LVL=0
      00010505H   SYMBOL    XDATA    ---       ax
      REG=3       REGSYM    ---      ---       ay
      00010509H   SYMBOL    XDATA    ---       az
      0001050DH   SYMBOL    XDATA    ---       gx
      00010511H   SYMBOL    XDATA    ---       gy
      00010515H   SYMBOL    XDATA    ---       gz
      00FF4C05H   BLOCK     CODE     NEAR LAB  LVL=1
      00010519H   SYMBOL    XDATA    ---       buf
      ---         BLOCKEND  ---      ---       LVL=1
      00FF4BF7H   LINE      CODE     ---       #275
      00FF4C05H   LINE      CODE     ---       #276
      00FF4C05H   LINE      CODE     ---       #279
      00FF4C15H   LINE      CODE     ---       #281
      00FF4C32H   LINE      CODE     ---       #282
      00FF4C4DH   LINE      CODE     ---       #283
      00FF4C68H   LINE      CODE     ---       #284
      00FF4C83H   LINE      CODE     ---       #285
      00FF4C96H   LINE      CODE     ---       #286
      00FF4CB1H   LINE      CODE     ---       #287
      ---         BLOCKEND  ---      ---       LVL=0
      REG=3       REGSYM    ---      ---       magy
      R15         REGSYM    ---      BYTE      res

      ---         MODULE    ---      ---       LQ_MotorServo
      00FF4CB4H   PUBLIC    CODE     ---       Motor_Init
      00FF570AH   PUBLIC    CODE     ---       Motor_Ctrl
      000000D0H   SFRSYM    DATA     BYTE      PSW
      0000009DH   SFRSYM    DATA     BYTE      IRCBAND
      00000097H   SFRSYM    DATA     BYTE      AUXR2
      000000EFH   SFRSYM    DATA     BYTE      AUXINTIF
      000000FDH   SFRSYM    DATA     BYTE      S4CON
      000000ACH   SFRSYM    DATA     BYTE      S3CON
      0000009AH   SFRSYM    DATA     BYTE      S2CON
      000000B7H   SFRSYM    DATA     BYTE      IPH
      000000CDH   SFRSYM    DATA     BYTE      SPSTAT
      000000DDH   SFRSYM    DATA     BYTE      T4T3M
      000000C1H   SFRSYM    DATA     BYTE      WDT_CONTR
      000000DFH   SFRSYM    DATA     BYTE      IP3
      000000F4H   SFRSYM    DATA     BYTE      USBCON
      000000B5H   SFRSYM    DATA     BYTE      IP2
      000000FFH   SFRSYM    DATA     BYTE      RSTCFG
      000000C7H   SFRSYM    DATA     BYTE      IAP_CONTR
      000000F9H   SFRSYM    DATA     BYTE      LINICR
      0000008EH   SFRSYM    DATA     BYTE      AUXR
      000000AFH   SFRSYM    DATA     BYTE      IE2
      000000C8H.3 SFRSYM    DATA     BIT       P53
      000000C8H.1 SFRSYM    DATA     BIT       P51
      00000088H   SFRSYM    DATA     BYTE      TCON
      00000089H   SFRSYM    DATA     BYTE      TMOD
      00000098H   SFRSYM    DATA     BYTE      SCON
L251 LINKER/LOCATER V4.66.93.0                                                        03/28/2026  21:02:40  PAGE 53


      000000F1H   SFRSYM    DATA     BYTE      CANICR
      00000087H   SFRSYM    DATA     BYTE      PCON
      000000BCH   SFRSYM    DATA     BYTE      ADC_CONTR
      000000D1H   SFRSYM    DATA     BYTE      PSW1
      000000E7H   SFRSYM    DATA     BYTE      CMPCR2
      000000E6H   SFRSYM    DATA     BYTE      CMPCR1
      000000DEH   SFRSYM    DATA     BYTE      ADCCFG
      000000B8H   SFRSYM    DATA     BYTE      IP
      0000008FH   SFRSYM    DATA     BYTE      INTCLKO
      000000EEH   SFRSYM    DATA     BYTE      IP3H
      000000B6H   SFRSYM    DATA     BYTE      IP2H
      000000BFH   SFRSYM    DATA     BYTE      P_SW4
      000000A8H   SFRSYM    DATA     BYTE      IE
      000000BBH   SFRSYM    DATA     BYTE      P_SW3
      000000BAH   SFRSYM    DATA     BYTE      P_SW2
      000000A2H   SFRSYM    DATA     BYTE      P_SW1
      000000CEH   SFRSYM    DATA     BYTE      SPCTL
      000000F8H   SFRSYM    DATA     BYTE      P7
      000000E8H   SFRSYM    DATA     BYTE      P6
      000000C8H   SFRSYM    DATA     BYTE      P5
      000000C0H   SFRSYM    DATA     BYTE      P4
      000000C9H   SFRSYM    DATA     BYTE      P5M1
      000000ABH   SFRSYM    DATA     BYTE      WKTCH
      000000B0H   SFRSYM    DATA     BYTE      P3
      000000CAH   SFRSYM    DATA     BYTE      P5M0
      000000A0H   SFRSYM    DATA     BYTE      P2
      00000090H   SFRSYM    DATA     BYTE      P1
      00000080H   SFRSYM    DATA     BYTE      P0
      00000091H   SFRSYM    DATA     BYTE      P1M1
      00000092H   SFRSYM    DATA     BYTE      P1M0

      00FF4CB4H   BLOCK     CODE     ---       LVL=0
      WR6         REGSYM    ---      WORD      freq
      00FF4CB6H   BLOCK     CODE     NEAR LAB  LVL=1
      00010547H   SYMBOL    XDATA    ---       PWMx_InitStructure
      WR14        REGSYM    ---      WORD      PWMx_Period
      ---         BLOCKEND  ---      ---       LVL=1
      00FF4CB4H   LINE      CODE     ---       #136
      00FF4CB6H   LINE      CODE     ---       #137
      00FF4CB6H   LINE      CODE     ---       #140
      00FF4CC7H   LINE      CODE     ---       #142
      00FF4CCDH   LINE      CODE     ---       #143
      00FF4CD5H   LINE      CODE     ---       #144
      00FF4CDBH   LINE      CODE     ---       #145
      00FF4CE8H   LINE      CODE     ---       #152
      00FF4CEEH   LINE      CODE     ---       #153
      00FF4CF6H   LINE      CODE     ---       #154
      00FF4CFCH   LINE      CODE     ---       #155
      00FF4D09H   LINE      CODE     ---       #162
      00FF4D0FH   LINE      CODE     ---       #163
      00FF4D14H   LINE      CODE     ---       #164
      00FF4D1AH   LINE      CODE     ---       #165
      00FF4D1EH   LINE      CODE     ---       #166
      00FF4D2BH   LINE      CODE     ---       #169
      00FF4D3BH   LINE      CODE     ---       #171
      00FF4D43H   LINE      CODE     ---       #175
      00FF4D49H   LINE      CODE     ---       #178
      00FF4D4FH   LINE      CODE     ---       #179
      00FF4D51H   LINE      CODE     ---       #180
      00FF4D53H   LINE      CODE     ---       #182
      00FF4D5CH   LINE      CODE     ---       #183
      00FF4D63H   LINE      CODE     ---       #184
      00FF4D6AH   LINE      CODE     ---       #186
      ---         BLOCKEND  ---      ---       LVL=0

L251 LINKER/LOCATER V4.66.93.0                                                        03/28/2026  21:02:40  PAGE 54


      00FF570AH   BLOCK     CODE     ---       LVL=0
      WR4         REGSYM    ---      INT       Motor1
      WR14        REGSYM    ---      INT       Motor2
      00FF570AH   LINE      CODE     ---       #200
      00FF5710H   LINE      CODE     ---       #202
      00FF5716H   LINE      CODE     ---       #204
      00FF571CH   LINE      CODE     ---       #205
      00FF571EH   LINE      CODE     ---       #206
      00FF571EH   LINE      CODE     ---       #207
      00FF5720H   LINE      CODE     ---       #210
      00FF5722H   LINE      CODE     ---       #211
      00FF5729H   LINE      CODE     ---       #212
      00FF5729H   LINE      CODE     ---       #214
      00FF572FH   LINE      CODE     ---       #216
      00FF5735H   LINE      CODE     ---       #217
      00FF5737H   LINE      CODE     ---       #218
      00FF5737H   LINE      CODE     ---       #219
      00FF5739H   LINE      CODE     ---       #222
      00FF573BH   LINE      CODE     ---       #223
      00FF5742H   LINE      CODE     ---       #224
      00FF5742H   LINE      CODE     ---       #225
      ---         BLOCKEND  ---      ---       LVL=0
      WR14        REGSYM    ---      INT       duty
      WR14        REGSYM    ---      WORD      freq
      R13         REGSYM    ---      BYTE      Sx
      WR14        REGSYM    ---      WORD      Sduty
      WR14        REGSYM    ---      WORD      duty
      WR14        REGSYM    ---      WORD      freq
      WR6         REGSYM    ---      WORD      BLmotor1
      WR14        REGSYM    ---      WORD      BLmotor2
      WR14        REGSYM    ---      WORD      duty

      ---         MODULE    ---      ---       LQ_OLED096
      00FF5BF4H   PUBLIC    HCONST   ---       F14x16
      00FF5EE8H   PUBLIC    HCONST   ---       F14x16_Idx
      00FF5F1FH   PUBLIC    HCONST   ---       F6x8
      00FF6147H   PUBLIC    HCONST   ---       F8X16
      00FF6737H   PUBLIC    HCONST   ---       longqiu104x64
      00FF4A5AH   PUBLIC    CODE     ---       OLED_Init
      00FF5A5FH   PUBLIC    CODE     ---       OLED_Set_Pos
      00FF5A15H   PUBLIC    CODE     ---       OLED_WrCmd
      00FF5779H   PUBLIC    CODE     ---       OLED_CLS
      00FF5A3AH   PUBLIC    CODE     ---       OLED_WrDat
      00FF4D6DH   PUBLIC    CODE     ---       OLED_P6x8Str
      000000D0H   SFRSYM    DATA     BYTE      PSW
      0000009DH   SFRSYM    DATA     BYTE      IRCBAND
      00000097H   SFRSYM    DATA     BYTE      AUXR2
      000000EFH   SFRSYM    DATA     BYTE      AUXINTIF
      000000FDH   SFRSYM    DATA     BYTE      S4CON
      000000ACH   SFRSYM    DATA     BYTE      S3CON
      0000009AH   SFRSYM    DATA     BYTE      S2CON
      000000B7H   SFRSYM    DATA     BYTE      IPH
      000000CDH   SFRSYM    DATA     BYTE      SPSTAT
      000000DDH   SFRSYM    DATA     BYTE      T4T3M
      000000C1H   SFRSYM    DATA     BYTE      WDT_CONTR
      000000DFH   SFRSYM    DATA     BYTE      IP3
      000000F4H   SFRSYM    DATA     BYTE      USBCON
      000000B5H   SFRSYM    DATA     BYTE      IP2
      000000FFH   SFRSYM    DATA     BYTE      RSTCFG
      000000C7H   SFRSYM    DATA     BYTE      IAP_CONTR
      000000F9H   SFRSYM    DATA     BYTE      LINICR
      0000008EH   SFRSYM    DATA     BYTE      AUXR
      000000AFH   SFRSYM    DATA     BYTE      IE2
      000000A0H.5 SFRSYM    DATA     BIT       P25
      000000B0H.4 SFRSYM    DATA     BIT       P34
L251 LINKER/LOCATER V4.66.93.0                                                        03/28/2026  21:02:40  PAGE 55


      00000088H   SFRSYM    DATA     BYTE      TCON
      00000089H   SFRSYM    DATA     BYTE      TMOD
      000000B0H.2 SFRSYM    DATA     BIT       P32
      00000098H   SFRSYM    DATA     BYTE      SCON
      000000A0H.1 SFRSYM    DATA     BIT       P21
      000000F1H   SFRSYM    DATA     BYTE      CANICR
      00000087H   SFRSYM    DATA     BYTE      PCON
      000000BCH   SFRSYM    DATA     BYTE      ADC_CONTR
      000000D1H   SFRSYM    DATA     BYTE      PSW1
      000000E7H   SFRSYM    DATA     BYTE      CMPCR2
      000000E6H   SFRSYM    DATA     BYTE      CMPCR1
      000000DEH   SFRSYM    DATA     BYTE      ADCCFG
      000000B8H   SFRSYM    DATA     BYTE      IP
      0000008FH   SFRSYM    DATA     BYTE      INTCLKO
      000000EEH   SFRSYM    DATA     BYTE      IP3H
      000000B6H   SFRSYM    DATA     BYTE      IP2H
      000000BFH   SFRSYM    DATA     BYTE      P_SW4
      000000A8H   SFRSYM    DATA     BYTE      IE
      000000BBH   SFRSYM    DATA     BYTE      P_SW3
      000000BAH   SFRSYM    DATA     BYTE      P_SW2
      000000A2H   SFRSYM    DATA     BYTE      P_SW1
      000000CEH   SFRSYM    DATA     BYTE      SPCTL
      000000F8H   SFRSYM    DATA     BYTE      P7
      000000E8H   SFRSYM    DATA     BYTE      P6
      000000C8H   SFRSYM    DATA     BYTE      P5
      000000C0H   SFRSYM    DATA     BYTE      P4
      000000ABH   SFRSYM    DATA     BYTE      WKTCH
      000000B0H   SFRSYM    DATA     BYTE      P3
      000000A0H   SFRSYM    DATA     BYTE      P2
      00000090H   SFRSYM    DATA     BYTE      P1
      00000080H   SFRSYM    DATA     BYTE      P0

      00FF4A5AH   BLOCK     CODE     ---       LVL=0
      00010547H   SYMBOL    XDATA    ---       OLED_SPI_Structure
      00FF4A5AH   LINE      CODE     ---       #58
      00FF4A5AH   LINE      CODE     ---       #59
      00FF4A5AH   LINE      CODE     ---       #62
      00FF4A60H   LINE      CODE     ---       #63
      00FF4A65H   LINE      CODE     ---       #64
      00FF4A72H   LINE      CODE     ---       #66
      00FF4A78H   LINE      CODE     ---       #67
      00FF4A7DH   LINE      CODE     ---       #68
      00FF4A8AH   LINE      CODE     ---       #72
      00FF4A8CH   LINE      CODE     ---       #74
      00FF4A8EH   LINE      CODE     ---       #75
      00FF4A95H   LINE      CODE     ---       #76
      00FF4A97H   LINE      CODE     ---       #78
      00FF4A9CH   LINE      CODE     ---       #79
      00FF4AA0H   LINE      CODE     ---       #80
      00FF4AA5H   LINE      CODE     ---       #81
      00FF4AAAH   LINE      CODE     ---       #82
      00FF4AAFH   LINE      CODE     ---       #83
      00FF4AB4H   LINE      CODE     ---       #84
      00FF4AB9H   LINE      CODE     ---       #85
      00FF4ABEH   LINE      CODE     ---       #86
      00FF4AC3H   LINE      CODE     ---       #87
      00FF4AC8H   LINE      CODE     ---       #88
      00FF4ACDH   LINE      CODE     ---       #89
      00FF4AD2H   LINE      CODE     ---       #90
      00FF4AD6H   LINE      CODE     ---       #91
      00FF4ADBH   LINE      CODE     ---       #92
      00FF4AE0H   LINE      CODE     ---       #93
      00FF4AE5H   LINE      CODE     ---       #94
      00FF4AEAH   LINE      CODE     ---       #95
      00FF4AEFH   LINE      CODE     ---       #96
L251 LINKER/LOCATER V4.66.93.0                                                        03/28/2026  21:02:40  PAGE 56


      00FF4AF4H   LINE      CODE     ---       #97
      00FF4AF9H   LINE      CODE     ---       #98
      00FF4AFEH   LINE      CODE     ---       #99
      00FF4B03H   LINE      CODE     ---       #100
      00FF4B08H   LINE      CODE     ---       #101
      00FF4B0DH   LINE      CODE     ---       #102
      00FF4B12H   LINE      CODE     ---       #103
      00FF4B17H   LINE      CODE     ---       #104
      00FF4B1CH   LINE      CODE     ---       #105
      00FF4B21H   LINE      CODE     ---       #106
      00FF4B24H   LINE      CODE     ---       #107
      ---         BLOCKEND  ---      ---       LVL=0

      00FF5A3AH   BLOCK     CODE     ---       LVL=0
      R7          REGSYM    ---      BYTE      dat
      00FF5A3CH   BLOCK     CODE     NEAR LAB  LVL=1
      R6          REGSYM    ---      BYTE      i
      ---         BLOCKEND  ---      ---       LVL=1
      00FF5A3AH   LINE      CODE     ---       #442
      00FF5A3CH   LINE      CODE     ---       #443
      00FF5A3CH   LINE      CODE     ---       #444
      00FF5A3FH   LINE      CODE     ---       #446
      00FF5A41H   LINE      CODE     ---       #447
      00FF5A43H   LINE      CODE     ---       #448
      00FF5A45H   LINE      CODE     ---       #450
      00FF5A4EH   LINE      CODE     ---       #451
      00FF5A50H   LINE      CODE     ---       #452
      00FF5A52H   LINE      CODE     ---       #454
      00FF5A54H   LINE      CODE     ---       #455
      00FF5A56H   LINE      CODE     ---       #456
      00FF5A5EH   LINE      CODE     ---       #458
      ---         BLOCKEND  ---      ---       LVL=0

      00FF5A15H   BLOCK     CODE     ---       LVL=0
      R7          REGSYM    ---      BYTE      cmd
      00FF5A17H   BLOCK     CODE     NEAR LAB  LVL=1
      R6          REGSYM    ---      BYTE      i
      ---         BLOCKEND  ---      ---       LVL=1
      00FF5A15H   LINE      CODE     ---       #473
      00FF5A17H   LINE      CODE     ---       #474
      00FF5A17H   LINE      CODE     ---       #475
      00FF5A1AH   LINE      CODE     ---       #478
      00FF5A1CH   LINE      CODE     ---       #479
      00FF5A1EH   LINE      CODE     ---       #480
      00FF5A20H   LINE      CODE     ---       #482
      00FF5A29H   LINE      CODE     ---       #483
      00FF5A2BH   LINE      CODE     ---       #484
      00FF5A2DH   LINE      CODE     ---       #485
      00FF5A2FH   LINE      CODE     ---       #486
      00FF5A31H   LINE      CODE     ---       #487
      00FF5A39H   LINE      CODE     ---       #489
      ---         BLOCKEND  ---      ---       LVL=0

      00FF5A5FH   BLOCK     CODE     ---       LVL=0
      R15         REGSYM    ---      BYTE      x
      R10         REGSYM    ---      BYTE      y
      00FF5A63H   BLOCK     CODE     NEAR LAB  LVL=1
      R11         REGSYM    ---      BYTE      tm
      ---         BLOCKEND  ---      ---       LVL=1
      00FF5A5FH   LINE      CODE     ---       #505
      00FF5A63H   LINE      CODE     ---       #506
      00FF5A63H   LINE      CODE     ---       #508
      00FF5A69H   LINE      CODE     ---       #509
      00FF5A6CH   LINE      CODE     ---       #510
      00FF5A78H   LINE      CODE     ---       #511
L251 LINKER/LOCATER V4.66.93.0                                                        03/28/2026  21:02:40  PAGE 57


      00FF5A7FH   LINE      CODE     ---       #512
      ---         BLOCKEND  ---      ---       LVL=0
      R15         REGSYM    ---      BYTE      y
      R13         REGSYM    ---      BYTE      x
      R7          REGSYM    ---      BYTE      tm

      00FF5779H   BLOCK     CODE     ---       LVL=0
      00FF577DH   BLOCK     CODE     NEAR LAB  LVL=1
      R15         REGSYM    ---      BYTE      y
      R13         REGSYM    ---      BYTE      x
      R7          REGSYM    ---      BYTE      tm
      ---         BLOCKEND  ---      ---       LVL=1
      00FF5779H   LINE      CODE     ---       #556
      00FF577DH   LINE      CODE     ---       #557
      00FF577DH   LINE      CODE     ---       #560
      00FF577FH   LINE      CODE     ---       #562
      00FF5785H   LINE      CODE     ---       #563
      00FF578AH   LINE      CODE     ---       #564
      00FF578FH   LINE      CODE     ---       #565
      00FF5794H   LINE      CODE     ---       #566
      00FF5796H   LINE      CODE     ---       #567
      00FF57A1H   LINE      CODE     ---       #568
      00FF57A8H   LINE      CODE     ---       #569
      ---         BLOCKEND  ---      ---       LVL=0
      R14         REGSYM    ---      BYTE      x
      R15         REGSYM    ---      BYTE      y
      R13         REGSYM    ---      BYTE      data1
      R15         REGSYM    ---      BYTE      x
      R14         REGSYM    ---      BYTE      y
      R15         REGSYM    ---      BYTE      x1
      R12         REGSYM    ---      BYTE      y1
      R13         REGSYM    ---      BYTE      y2
      R14         REGSYM    ---      BYTE      gif

      00FF4D6DH   BLOCK     CODE     ---       LVL=0
      00010547H   SYMBOL    XDATA    BYTE      x
      00010548H   SYMBOL    XDATA    BYTE      y
      REG=3       REGSYM    ---      ---       ch
      00FF4D7BH   BLOCK     CODE     NEAR LAB  LVL=1
      00010549H   SYMBOL    XDATA    BYTE      c
      0001054AH   SYMBOL    XDATA    BYTE      i
      0001054BH   SYMBOL    XDATA    BYTE      j
      ---         BLOCKEND  ---      ---       LVL=1
      00FF4D6DH   LINE      CODE     ---       #695
      00FF4D7BH   LINE      CODE     ---       #696
      00FF4D7BH   LINE      CODE     ---       #697
      00FF4D88H   LINE      CODE     ---       #698
      00FF4D8AH   LINE      CODE     ---       #700
      00FF4DA1H   LINE      CODE     ---       #701
      00FF4DB5H   LINE      CODE     ---       #702
      00FF4DC2H   LINE      CODE     ---       #703
      00FF4DC7H   LINE      CODE     ---       #704
      00FF4DFBH   LINE      CODE     ---       #705
      00FF4E02H   LINE      CODE     ---       #706
      00FF4E08H   LINE      CODE     ---       #707
      00FF4E1AH   LINE      CODE     ---       #708
      ---         BLOCKEND  ---      ---       LVL=0
      REG=3       REGSYM    ---      ---       ch
      REG=3       REGSYM    ---      ---       ch
      R3          REGSYM    ---      BYTE      y0
      R10         REGSYM    ---      BYTE      wide
      R2          REGSYM    ---      BYTE      high
      REG=3       REGSYM    ---      ---       bmp
      WR14        REGSYM    ---      WORD      ii
      R12         REGSYM    ---      BYTE      x
L251 LINKER/LOCATER V4.66.93.0                                                        03/28/2026  21:02:40  PAGE 58


      R13         REGSYM    ---      BYTE      y
      REG=3       REGSYM    ---      ---       Pixle

      ---         MODULE    ---      ---       LQ_SBUS
      00FF4668H   PUBLIC    CODE     ---       UpDate_SBUS
      0001056FH   PUBLIC    XDATA    BYTE      sbus_Rec_Fini_Flag
      00010570H   PUBLIC    XDATA    WORD      Status_flag
      00010572H   PUBLIC    XDATA    INT       rc_SW5
      00010574H   PUBLIC    XDATA    INT       rc_SW6
      00010576H   PUBLIC    XDATA    INT       rc_SW7
      00010578H   PUBLIC    XDATA    INT       rc_SW8
      0001057AH   PUBLIC    XDATA    INT       rc_LUD
      0001057CH   PUBLIC    XDATA    INT       rc_LLR
      0001057EH   PUBLIC    XDATA    INT       rc_RUD
      00010580H   PUBLIC    XDATA    INT       rc_RLR
      00010582H   PUBLIC    XDATA    ---       SReadBuff
      000105C2H   PUBLIC    XDATA    BYTE      receive_flag
      000000D0H   SFRSYM    DATA     BYTE      PSW
      0000009DH   SFRSYM    DATA     BYTE      IRCBAND
      00000097H   SFRSYM    DATA     BYTE      AUXR2
      000000EFH   SFRSYM    DATA     BYTE      AUXINTIF
      000000FDH   SFRSYM    DATA     BYTE      S4CON
      000000ACH   SFRSYM    DATA     BYTE      S3CON
      0000009AH   SFRSYM    DATA     BYTE      S2CON
      000000B7H   SFRSYM    DATA     BYTE      IPH
      000000CDH   SFRSYM    DATA     BYTE      SPSTAT
      000000DDH   SFRSYM    DATA     BYTE      T4T3M
      000000C1H   SFRSYM    DATA     BYTE      WDT_CONTR
      000000DFH   SFRSYM    DATA     BYTE      IP3
      000000F4H   SFRSYM    DATA     BYTE      USBCON
      000000B5H   SFRSYM    DATA     BYTE      IP2
      000000FFH   SFRSYM    DATA     BYTE      RSTCFG
      000000C7H   SFRSYM    DATA     BYTE      IAP_CONTR
      000000F9H   SFRSYM    DATA     BYTE      LINICR
      0000008EH   SFRSYM    DATA     BYTE      AUXR
      000000AFH   SFRSYM    DATA     BYTE      IE2
      00000088H   SFRSYM    DATA     BYTE      TCON
      00000089H   SFRSYM    DATA     BYTE      TMOD
      00000098H   SFRSYM    DATA     BYTE      SCON
      000000F1H   SFRSYM    DATA     BYTE      CANICR
      00000087H   SFRSYM    DATA     BYTE      PCON
      000000BCH   SFRSYM    DATA     BYTE      ADC_CONTR
      000000D1H   SFRSYM    DATA     BYTE      PSW1
      000000E7H   SFRSYM    DATA     BYTE      CMPCR2
      000000E6H   SFRSYM    DATA     BYTE      CMPCR1
      000000DEH   SFRSYM    DATA     BYTE      ADCCFG
      000000B8H   SFRSYM    DATA     BYTE      IP
      0000008FH   SFRSYM    DATA     BYTE      INTCLKO
      000000EEH   SFRSYM    DATA     BYTE      IP3H
      000000B6H   SFRSYM    DATA     BYTE      IP2H
      000000BFH   SFRSYM    DATA     BYTE      P_SW4
      000000A8H   SFRSYM    DATA     BYTE      IE
      000000BBH   SFRSYM    DATA     BYTE      P_SW3
      000000BAH   SFRSYM    DATA     BYTE      P_SW2
      000000A2H   SFRSYM    DATA     BYTE      P_SW1
      000000CEH   SFRSYM    DATA     BYTE      SPCTL
      000000F8H   SFRSYM    DATA     BYTE      P7
      000000E8H   SFRSYM    DATA     BYTE      P6
      000000C8H   SFRSYM    DATA     BYTE      P5
      000000C0H   SFRSYM    DATA     BYTE      P4
      000000ABH   SFRSYM    DATA     BYTE      WKTCH
      000000B0H   SFRSYM    DATA     BYTE      P3
      000000A0H   SFRSYM    DATA     BYTE      P2
      00000090H   SFRSYM    DATA     BYTE      P1
      00000080H   SFRSYM    DATA     BYTE      P0
L251 LINKER/LOCATER V4.66.93.0                                                        03/28/2026  21:02:40  PAGE 59



      00FF4668H   BLOCK     CODE     ---       LVL=0
      00FF4668H   LINE      CODE     ---       #43
      00FF4668H   LINE      CODE     ---       #46
      00FF4683H   LINE      CODE     ---       #47
      00FF46A8H   LINE      CODE     ---       #48
      00FF46D5H   LINE      CODE     ---       #49
      00FF46F8H   LINE      CODE     ---       #50
      00FF4718H   LINE      CODE     ---       #51
      00FF473EH   LINE      CODE     ---       #52
      00FF4763H   LINE      CODE     ---       #53
      00FF4782H   LINE      CODE     ---       #55
      00FF4788H   LINE      CODE     ---       #63
      ---         BLOCKEND  ---      ---       LVL=0

      ---         MODULE    ---      ---       LQ_Soft_I2C
      00FF001EH   PUBLIC    CODE     ---       iic_delay
      000000D0H   SFRSYM    DATA     BYTE      PSW
      0000009DH   SFRSYM    DATA     BYTE      IRCBAND
      00000097H   SFRSYM    DATA     BYTE      AUXR2
      000000EFH   SFRSYM    DATA     BYTE      AUXINTIF
      000000FDH   SFRSYM    DATA     BYTE      S4CON
      000000ACH   SFRSYM    DATA     BYTE      S3CON
      0000009AH   SFRSYM    DATA     BYTE      S2CON
      000000B7H   SFRSYM    DATA     BYTE      IPH
      000000CDH   SFRSYM    DATA     BYTE      SPSTAT
      000000DDH   SFRSYM    DATA     BYTE      T4T3M
      000000C1H   SFRSYM    DATA     BYTE      WDT_CONTR
      000000DFH   SFRSYM    DATA     BYTE      IP3
      000000F4H   SFRSYM    DATA     BYTE      USBCON
      000000B5H   SFRSYM    DATA     BYTE      IP2
      000000FFH   SFRSYM    DATA     BYTE      RSTCFG
      000000C7H   SFRSYM    DATA     BYTE      IAP_CONTR
      000000F9H   SFRSYM    DATA     BYTE      LINICR
      0000008EH   SFRSYM    DATA     BYTE      AUXR
      000000AFH   SFRSYM    DATA     BYTE      IE2
      000000A0H.4 SFRSYM    DATA     BIT       P24
      00000088H   SFRSYM    DATA     BYTE      TCON
      00000089H   SFRSYM    DATA     BYTE      TMOD
      000000A0H.3 SFRSYM    DATA     BIT       P23
      00000098H   SFRSYM    DATA     BYTE      SCON
      000000F1H   SFRSYM    DATA     BYTE      CANICR
      00000087H   SFRSYM    DATA     BYTE      PCON
      000000BCH   SFRSYM    DATA     BYTE      ADC_CONTR
      000000D1H   SFRSYM    DATA     BYTE      PSW1
      000000E7H   SFRSYM    DATA     BYTE      CMPCR2
      000000E6H   SFRSYM    DATA     BYTE      CMPCR1
      000000DEH   SFRSYM    DATA     BYTE      ADCCFG
      000000B8H   SFRSYM    DATA     BYTE      IP
      0000008FH   SFRSYM    DATA     BYTE      INTCLKO
      000000EEH   SFRSYM    DATA     BYTE      IP3H
      000000B6H   SFRSYM    DATA     BYTE      IP2H
      000000BFH   SFRSYM    DATA     BYTE      P_SW4
      000000A8H   SFRSYM    DATA     BYTE      IE
      000000BBH   SFRSYM    DATA     BYTE      P_SW3
      000000BAH   SFRSYM    DATA     BYTE      P_SW2
      000000A2H   SFRSYM    DATA     BYTE      P_SW1
      000000CEH   SFRSYM    DATA     BYTE      SPCTL
      000000F8H   SFRSYM    DATA     BYTE      P7
      000000E8H   SFRSYM    DATA     BYTE      P6
      000000C8H   SFRSYM    DATA     BYTE      P5
      000000C0H   SFRSYM    DATA     BYTE      P4
      000000ABH   SFRSYM    DATA     BYTE      WKTCH
      000000B0H   SFRSYM    DATA     BYTE      P3
      000000A0H   SFRSYM    DATA     BYTE      P2
L251 LINKER/LOCATER V4.66.93.0                                                        03/28/2026  21:02:40  PAGE 60


      00000090H   SFRSYM    DATA     BYTE      P1
      00000095H   SFRSYM    DATA     BYTE      P2M1
      00000080H   SFRSYM    DATA     BYTE      P0
      00000096H   SFRSYM    DATA     BYTE      P2M0

      00FF001EH   BLOCK     CODE     ---       LVL=0
      00FF001EH   LINE      CODE     ---       #27
      00FF001EH   LINE      CODE     ---       #29
      ---         BLOCKEND  ---      ---       LVL=0
      R15         REGSYM    ---      BYTE      ucErrTime
      R15         REGSYM    ---      BYTE      data_t
      R14         REGSYM    ---      BYTE      t
      R15         REGSYM    ---      BYTE      ack
      R13         REGSYM    ---      BYTE      i
      R14         REGSYM    ---      BYTE      receive
      R15         REGSYM    ---      BYTE      I2C_Addr
      R14         REGSYM    ---      BYTE      reg
      R13         REGSYM    ---      BYTE      I2C_Addr
      R14         REGSYM    ---      BYTE      reg
      R15         REGSYM    ---      BYTE      data_t
      REG=3       REGSYM    ---      ---       data_t
      REG=3       REGSYM    ---      ---       data_t
      REG=3       REGSYM    ---      ---       dat
      REG=3       REGSYM    ---      ---       buf

      ---         MODULE    ---      ---       LQ_Soft_SPI
      00FF549CH   PUBLIC    CODE     ---       LQ_SPI_Read
      00FF002EH   PUBLIC    CODE     ---       LQ_SPI_Write
      00FF0136H   PUBLIC    CODE     ---       Soft_SPI_ReadWriteNbyte
      00FF5B35H   PUBLIC    CODE     ---       Soft_SPI_Init
      000000D0H   SFRSYM    DATA     BYTE      PSW
      0000009DH   SFRSYM    DATA     BYTE      IRCBAND
      00000097H   SFRSYM    DATA     BYTE      AUXR2
      000000EFH   SFRSYM    DATA     BYTE      AUXINTIF
      000000FDH   SFRSYM    DATA     BYTE      S4CON
      000000ACH   SFRSYM    DATA     BYTE      S3CON
      0000009AH   SFRSYM    DATA     BYTE      S2CON
      000000B7H   SFRSYM    DATA     BYTE      IPH
      000000CDH   SFRSYM    DATA     BYTE      SPSTAT
      000000DDH   SFRSYM    DATA     BYTE      T4T3M
      000000C1H   SFRSYM    DATA     BYTE      WDT_CONTR
      000000DFH   SFRSYM    DATA     BYTE      IP3
      000000F4H   SFRSYM    DATA     BYTE      USBCON
      000000B5H   SFRSYM    DATA     BYTE      IP2
      000000FFH   SFRSYM    DATA     BYTE      RSTCFG
      000000C7H   SFRSYM    DATA     BYTE      IAP_CONTR
      000000F9H   SFRSYM    DATA     BYTE      LINICR
      0000008EH   SFRSYM    DATA     BYTE      AUXR
      000000AFH   SFRSYM    DATA     BYTE      IE2
      000000C0H.3 SFRSYM    DATA     BIT       P43
      000000C0H.2 SFRSYM    DATA     BIT       P42
      00000088H   SFRSYM    DATA     BYTE      TCON
      00000089H   SFRSYM    DATA     BYTE      TMOD
      000000C0H.1 SFRSYM    DATA     BIT       P41
      00000098H   SFRSYM    DATA     BYTE      SCON
      000000C0H.0 SFRSYM    DATA     BIT       P40
      000000F1H   SFRSYM    DATA     BYTE      CANICR
      00000087H   SFRSYM    DATA     BYTE      PCON
      000000BCH   SFRSYM    DATA     BYTE      ADC_CONTR
      000000D1H   SFRSYM    DATA     BYTE      PSW1
      000000E7H   SFRSYM    DATA     BYTE      CMPCR2
      000000E6H   SFRSYM    DATA     BYTE      CMPCR1
      000000DEH   SFRSYM    DATA     BYTE      ADCCFG
      000000B8H   SFRSYM    DATA     BYTE      IP
      0000008FH   SFRSYM    DATA     BYTE      INTCLKO
L251 LINKER/LOCATER V4.66.93.0                                                        03/28/2026  21:02:40  PAGE 61


      000000EEH   SFRSYM    DATA     BYTE      IP3H
      000000B6H   SFRSYM    DATA     BYTE      IP2H
      000000BFH   SFRSYM    DATA     BYTE      P_SW4
      000000A8H   SFRSYM    DATA     BYTE      IE
      000000BBH   SFRSYM    DATA     BYTE      P_SW3
      000000BAH   SFRSYM    DATA     BYTE      P_SW2
      000000A2H   SFRSYM    DATA     BYTE      P_SW1
      000000CEH   SFRSYM    DATA     BYTE      SPCTL
      000000F8H   SFRSYM    DATA     BYTE      P7
      000000E8H   SFRSYM    DATA     BYTE      P6
      000000C8H   SFRSYM    DATA     BYTE      P5
      000000C0H   SFRSYM    DATA     BYTE      P4
      000000ABH   SFRSYM    DATA     BYTE      WKTCH
      000000B0H   SFRSYM    DATA     BYTE      P3
      000000A0H   SFRSYM    DATA     BYTE      P2
      00000090H   SFRSYM    DATA     BYTE      P1
      00000080H   SFRSYM    DATA     BYTE      P0

      00FF5B35H   BLOCK     CODE     ---       LVL=0
      00010547H   SYMBOL    XDATA    ---       GPIO_Soft_SPI
      00FF5B35H   LINE      CODE     ---       #28
      00FF5B35H   LINE      CODE     ---       #29
      00FF5B35H   LINE      CODE     ---       #33
      00FF5B3BH   LINE      CODE     ---       #34
      00FF5B40H   LINE      CODE     ---       #35
      ---         BLOCKEND  ---      ---       LVL=0

      00FF0136H   BLOCK     CODE     ---       LVL=0
      REG=7       REGSYM    ---      ---       lqbuff
      WR8         REGSYM    ---      WORD      len
      00FF013AH   BLOCK     CODE     NEAR LAB  LVL=1
      R10         REGSYM    ---      BYTE      i
      ---         BLOCKEND  ---      ---       LVL=1
      00FF0136H   LINE      CODE     ---       #46
      00FF013AH   LINE      CODE     ---       #47
      00FF013AH   LINE      CODE     ---       #50
      00FF013CH   LINE      CODE     ---       #51
      00FF013EH   LINE      CODE     ---       #52
      00FF013EH   LINE      CODE     ---       #54
      00FF0140H   LINE      CODE     ---       #56
      00FF014EH   LINE      CODE     ---       #57
      00FF0150H   LINE      CODE     ---       #58
      00FF0155H   LINE      CODE     ---       #60
      00FF0157H   LINE      CODE     ---       #62
      00FF0165H   LINE      CODE     ---       #63
      00FF016CH   LINE      CODE     ---       #64
      00FF016EH   LINE      CODE     ---       #65
      00FF0176H   LINE      CODE     ---       #66
      00FF0178H   LINE      CODE     ---       #67
      ---         BLOCKEND  ---      ---       LVL=0

      00FF549CH   BLOCK     CODE     ---       LVL=0
      R7          REGSYM    ---      BYTE      reg
      0001054CH   SYMBOL    XDATA    WORD      len
      REG=3       REGSYM    ---      ---       buf
      00FF54A6H   BLOCK     CODE     NEAR LAB  LVL=1
      WR6         REGSYM    ---      WORD      i
      0001054EH   SYMBOL    XDATA    ---       buff
      ---         BLOCKEND  ---      ---       LVL=1
      00FF549CH   LINE      CODE     ---       #79
      00FF54A6H   LINE      CODE     ---       #80
      00FF54A6H   LINE      CODE     ---       #83
      00FF54ACH   LINE      CODE     ---       #85
      00FF54BFH   LINE      CODE     ---       #86
      00FF54C3H   LINE      CODE     ---       #87
L251 LINKER/LOCATER V4.66.93.0                                                        03/28/2026  21:02:40  PAGE 62


      00FF54E3H   LINE      CODE     ---       #88
      ---         BLOCKEND  ---      ---       LVL=0

      00FF002EH   BLOCK     CODE     ---       LVL=0
      R11         REGSYM    ---      BYTE      reg
      R10         REGSYM    ---      BYTE      value
      0001054BH   SYMBOL    XDATA    ---       buff
      00FF002EH   LINE      CODE     ---       #98
      00FF002EH   LINE      CODE     ---       #99
      00FF002EH   LINE      CODE     ---       #102
      00FF0034H   LINE      CODE     ---       #103
      00FF003AH   LINE      CODE     ---       #104
      ---         BLOCKEND  ---      ---       LVL=0

      ---         MODULE    ---      ---       LQ_TIMER
      00FF01D6H   PUBLIC    CODE     ---       TIM_Init_ms
      00FF40DFH   PUBLIC    CODE     ---       TIM_Init
      000000D0H   SFRSYM    DATA     BYTE      PSW
      0000009DH   SFRSYM    DATA     BYTE      IRCBAND
      00000097H   SFRSYM    DATA     BYTE      AUXR2
      000000EFH   SFRSYM    DATA     BYTE      AUXINTIF
      000000FDH   SFRSYM    DATA     BYTE      S4CON
      000000ACH   SFRSYM    DATA     BYTE      S3CON
      0000009AH   SFRSYM    DATA     BYTE      S2CON
      000000B7H   SFRSYM    DATA     BYTE      IPH
      000000CDH   SFRSYM    DATA     BYTE      SPSTAT
      000000DDH   SFRSYM    DATA     BYTE      T4T3M
      000000C1H   SFRSYM    DATA     BYTE      WDT_CONTR
      000000DFH   SFRSYM    DATA     BYTE      IP3
      000000F4H   SFRSYM    DATA     BYTE      USBCON
      000000B5H   SFRSYM    DATA     BYTE      IP2
      000000FFH   SFRSYM    DATA     BYTE      RSTCFG
      000000C7H   SFRSYM    DATA     BYTE      IAP_CONTR
      000000F9H   SFRSYM    DATA     BYTE      LINICR
      0000008EH   SFRSYM    DATA     BYTE      AUXR
      000000AFH   SFRSYM    DATA     BYTE      IE2
      00000088H   SFRSYM    DATA     BYTE      TCON
      00000089H   SFRSYM    DATA     BYTE      TMOD
      00000098H   SFRSYM    DATA     BYTE      SCON
      000000F1H   SFRSYM    DATA     BYTE      CANICR
      00000087H   SFRSYM    DATA     BYTE      PCON
      000000BCH   SFRSYM    DATA     BYTE      ADC_CONTR
      000000D1H   SFRSYM    DATA     BYTE      PSW1
      000000E7H   SFRSYM    DATA     BYTE      CMPCR2
      000000E6H   SFRSYM    DATA     BYTE      CMPCR1
      000000DEH   SFRSYM    DATA     BYTE      ADCCFG
      000000B8H   SFRSYM    DATA     BYTE      IP
      0000008FH   SFRSYM    DATA     BYTE      INTCLKO
      000000EEH   SFRSYM    DATA     BYTE      IP3H
      000000B6H   SFRSYM    DATA     BYTE      IP2H
      000000BFH   SFRSYM    DATA     BYTE      P_SW4
      000000A8H   SFRSYM    DATA     BYTE      IE
      000000BBH   SFRSYM    DATA     BYTE      P_SW3
      000000BAH   SFRSYM    DATA     BYTE      P_SW2
      000000A2H   SFRSYM    DATA     BYTE      P_SW1
      000000CEH   SFRSYM    DATA     BYTE      SPCTL
      000000F8H   SFRSYM    DATA     BYTE      P7
      000000E8H   SFRSYM    DATA     BYTE      P6
      000000C8H   SFRSYM    DATA     BYTE      P5
      000000C0H   SFRSYM    DATA     BYTE      P4
      000000ABH   SFRSYM    DATA     BYTE      WKTCH
      000000B0H   SFRSYM    DATA     BYTE      P3
      000000A0H   SFRSYM    DATA     BYTE      P2
      00000090H   SFRSYM    DATA     BYTE      P1
      00000080H   SFRSYM    DATA     BYTE      P0
L251 LINKER/LOCATER V4.66.93.0                                                        03/28/2026  21:02:40  PAGE 63



      00FF40DFH   BLOCK     CODE     ---       LVL=0
      R15         REGSYM    ---      BYTE      Tim
      DR28        REGSYM    ---      DWORD     temp
      00FF40E7H   BLOCK     CODE     NEAR LAB  LVL=1
      R14         REGSYM    ---      BYTE      freq_ps
      R13         REGSYM    ---      BYTE      tim_clockT
      WR26        REGSYM    ---      WORD      Period
      00FF4140H   BLOCK     CODE     NEAR LAB  LVL=2
      00010547H   SYMBOL    XDATA    ---       TIMx_InitStructure
      ---         BLOCKEND  ---      ---       LVL=2
      ---         BLOCKEND  ---      ---       LVL=1
      00FF40DFH   LINE      CODE     ---       #28
      00FF40E7H   LINE      CODE     ---       #29
      00FF40E7H   LINE      CODE     ---       #30
      00FF40E7H   LINE      CODE     ---       #31
      00FF40E7H   LINE      CODE     ---       #35
      00FF40F4H   LINE      CODE     ---       #37
      00FF40F6H   LINE      CODE     ---       #38
      00FF4101H   LINE      CODE     ---       #39
      00FF4103H   LINE      CODE     ---       #40
      00FF4106H   LINE      CODE     ---       #43
      00FF410AH   LINE      CODE     ---       #44
      00FF411FH   LINE      CODE     ---       #47
      00FF4140H   LINE      CODE     ---       #48
      00FF4140H   LINE      CODE     ---       #51
      00FF4140H   LINE      CODE     ---       #53
      00FF4145H   LINE      CODE     ---       #54
      00FF414BH   LINE      CODE     ---       #55
      00FF414FH   LINE      CODE     ---       #56
      00FF4155H   LINE      CODE     ---       #57
      00FF415BH   LINE      CODE     ---       #58
      00FF4161H   LINE      CODE     ---       #59
      00FF416DH   LINE      CODE     ---       #60
      00FF4175H   LINE      CODE     ---       #61
      00FF4178H   LINE      CODE     ---       #63
      00FF4178H   LINE      CODE     ---       #65
      00FF417DH   LINE      CODE     ---       #66
      00FF4183H   LINE      CODE     ---       #67
      00FF4187H   LINE      CODE     ---       #68
      00FF418DH   LINE      CODE     ---       #69
      00FF4193H   LINE      CODE     ---       #70
      00FF4199H   LINE      CODE     ---       #71
      00FF41A4H   LINE      CODE     ---       #72
      00FF41ACH   LINE      CODE     ---       #73
      00FF41AFH   LINE      CODE     ---       #75
      00FF41AFH   LINE      CODE     ---       #77
      00FF41B4H   LINE      CODE     ---       #78
      00FF41BAH   LINE      CODE     ---       #79
      00FF41BEH   LINE      CODE     ---       #80
      00FF41C4H   LINE      CODE     ---       #81
      00FF41CAH   LINE      CODE     ---       #82
      00FF41D0H   LINE      CODE     ---       #83
      00FF41DDH   LINE      CODE     ---       #84
      00FF41E5H   LINE      CODE     ---       #85
      00FF41E7H   LINE      CODE     ---       #87
      00FF41E7H   LINE      CODE     ---       #89
      00FF41ECH   LINE      CODE     ---       #90
      00FF41F2H   LINE      CODE     ---       #91
      00FF41F6H   LINE      CODE     ---       #92
      00FF41FCH   LINE      CODE     ---       #93
      00FF4202H   LINE      CODE     ---       #94
      00FF4208H   LINE      CODE     ---       #95
      00FF4215H   LINE      CODE     ---       #96
      00FF421DH   LINE      CODE     ---       #97
L251 LINKER/LOCATER V4.66.93.0                                                        03/28/2026  21:02:40  PAGE 64


      00FF421FH   LINE      CODE     ---       #105
      00FF421FH   LINE      CODE     ---       #107
      00FF4224H   LINE      CODE     ---       #108
      00FF422AH   LINE      CODE     ---       #109
      00FF422EH   LINE      CODE     ---       #110
      00FF4234H   LINE      CODE     ---       #111
      00FF423AH   LINE      CODE     ---       #112
      00FF4240H   LINE      CODE     ---       #113
      00FF424DH   LINE      CODE     ---       #114
      00FF4255H   LINE      CODE     ---       #115
      00FF4255H   LINE      CODE     ---       #117
      00FF4255H   LINE      CODE     ---       #119
      00FF4255H   LINE      CODE     ---       #120
      00FF4255H   LINE      CODE     ---       #122
      00FF4255H   LINE      CODE     ---       #123
      ---         BLOCKEND  ---      ---       LVL=0

      00FF01D6H   BLOCK     CODE     ---       LVL=0
      R7          REGSYM    ---      BYTE      Tim_x
      WR4         REGSYM    ---      WORD      time_ms
      00FF01D6H   LINE      CODE     ---       #134
      00FF01D8H   LINE      CODE     ---       #136
      ---         BLOCKEND  ---      ---       LVL=0
      R7          REGSYM    ---      BYTE      Tim_x
      DR28        REGSYM    ---      DWORD     time_us

      ---         MODULE    ---      ---       LQ_UART
      0001022BH   PUBLIC    XDATA    ---       DMA_URT1_Buf
      000102ABH   PUBLIC    XDATA    ---       DMA_URX1_Buf
      000000D0H   SFRSYM    DATA     BYTE      PSW
      0000009DH   SFRSYM    DATA     BYTE      IRCBAND
      00000097H   SFRSYM    DATA     BYTE      AUXR2
      000000EFH   SFRSYM    DATA     BYTE      AUXINTIF
      000000FDH   SFRSYM    DATA     BYTE      S4CON
      000000ACH   SFRSYM    DATA     BYTE      S3CON
      0000009AH   SFRSYM    DATA     BYTE      S2CON
      000000B7H   SFRSYM    DATA     BYTE      IPH
      000000CDH   SFRSYM    DATA     BYTE      SPSTAT
      000000DDH   SFRSYM    DATA     BYTE      T4T3M
      000000C1H   SFRSYM    DATA     BYTE      WDT_CONTR
      000000DFH   SFRSYM    DATA     BYTE      IP3
      000000F4H   SFRSYM    DATA     BYTE      USBCON
      000000B5H   SFRSYM    DATA     BYTE      IP2
      000000FFH   SFRSYM    DATA     BYTE      RSTCFG
      000000C7H   SFRSYM    DATA     BYTE      IAP_CONTR
      000000F9H   SFRSYM    DATA     BYTE      LINICR
      0000008EH   SFRSYM    DATA     BYTE      AUXR
      000000AFH   SFRSYM    DATA     BYTE      IE2
      00000088H   SFRSYM    DATA     BYTE      TCON
      00000089H   SFRSYM    DATA     BYTE      TMOD
      00000098H   SFRSYM    DATA     BYTE      SCON
      000000F1H   SFRSYM    DATA     BYTE      CANICR
      00000087H   SFRSYM    DATA     BYTE      PCON
      000000BCH   SFRSYM    DATA     BYTE      ADC_CONTR
      000000D1H   SFRSYM    DATA     BYTE      PSW1
      000000E7H   SFRSYM    DATA     BYTE      CMPCR2
      000000E6H   SFRSYM    DATA     BYTE      CMPCR1
      000000DEH   SFRSYM    DATA     BYTE      ADCCFG
      000000B8H   SFRSYM    DATA     BYTE      IP
      0000008FH   SFRSYM    DATA     BYTE      INTCLKO
      000000EEH   SFRSYM    DATA     BYTE      IP3H
      000000B6H   SFRSYM    DATA     BYTE      IP2H
      000000BFH   SFRSYM    DATA     BYTE      P_SW4
      000000A8H   SFRSYM    DATA     BYTE      IE
      000000BBH   SFRSYM    DATA     BYTE      P_SW3
L251 LINKER/LOCATER V4.66.93.0                                                        03/28/2026  21:02:40  PAGE 65


      000000BAH   SFRSYM    DATA     BYTE      P_SW2
      000000A2H   SFRSYM    DATA     BYTE      P_SW1
      000000CEH   SFRSYM    DATA     BYTE      SPCTL
      000000F8H   SFRSYM    DATA     BYTE      P7
      000000A8H.7 SFRSYM    DATA     BIT       EA
      000000E8H   SFRSYM    DATA     BYTE      P6
      000000C8H   SFRSYM    DATA     BYTE      P5
      000000C0H   SFRSYM    DATA     BYTE      P4
      000000ABH   SFRSYM    DATA     BYTE      WKTCH
      000000B0H   SFRSYM    DATA     BYTE      P3
      000000A0H   SFRSYM    DATA     BYTE      P2
      00000090H   SFRSYM    DATA     BYTE      P1
      00000080H   SFRSYM    DATA     BYTE      P0
      00FF6FFFH   SYMBOL    HCONST   ---       ?tpl?0001
      R7          REGSYM    ---      BYTE      UARTx
      DR12        REGSYM    ---      DWORD     BaudRate
      R14         REGSYM    ---      BYTE      i
      R15         REGSYM    ---      BYTE      len
      R15         REGSYM    ---      BYTE      i

      ---         MODULE    ---      ---       LQ_WDT
      000000D0H   SFRSYM    DATA     BYTE      PSW
      0000009DH   SFRSYM    DATA     BYTE      IRCBAND
      00000097H   SFRSYM    DATA     BYTE      AUXR2
      000000EFH   SFRSYM    DATA     BYTE      AUXINTIF
      000000FDH   SFRSYM    DATA     BYTE      S4CON
      000000ACH   SFRSYM    DATA     BYTE      S3CON
      0000009AH   SFRSYM    DATA     BYTE      S2CON
      000000B7H   SFRSYM    DATA     BYTE      IPH
      000000CDH   SFRSYM    DATA     BYTE      SPSTAT
      000000DDH   SFRSYM    DATA     BYTE      T4T3M
      000000C1H   SFRSYM    DATA     BYTE      WDT_CONTR
      000000DFH   SFRSYM    DATA     BYTE      IP3
      000000F4H   SFRSYM    DATA     BYTE      USBCON
      000000B5H   SFRSYM    DATA     BYTE      IP2
      000000FFH   SFRSYM    DATA     BYTE      RSTCFG
      000000C7H   SFRSYM    DATA     BYTE      IAP_CONTR
      000000F9H   SFRSYM    DATA     BYTE      LINICR
      0000008EH   SFRSYM    DATA     BYTE      AUXR
      000000AFH   SFRSYM    DATA     BYTE      IE2
      00000088H   SFRSYM    DATA     BYTE      TCON
      00000089H   SFRSYM    DATA     BYTE      TMOD
      00000098H   SFRSYM    DATA     BYTE      SCON
      000000F1H   SFRSYM    DATA     BYTE      CANICR
      00000087H   SFRSYM    DATA     BYTE      PCON
      000000BCH   SFRSYM    DATA     BYTE      ADC_CONTR
      000000D1H   SFRSYM    DATA     BYTE      PSW1
      000000E7H   SFRSYM    DATA     BYTE      CMPCR2
      000000E6H   SFRSYM    DATA     BYTE      CMPCR1
      000000DEH   SFRSYM    DATA     BYTE      ADCCFG
      000000B8H   SFRSYM    DATA     BYTE      IP
      0000008FH   SFRSYM    DATA     BYTE      INTCLKO
      000000EEH   SFRSYM    DATA     BYTE      IP3H
      000000B6H   SFRSYM    DATA     BYTE      IP2H
      000000BFH   SFRSYM    DATA     BYTE      P_SW4
      000000A8H   SFRSYM    DATA     BYTE      IE
      000000BBH   SFRSYM    DATA     BYTE      P_SW3
      000000BAH   SFRSYM    DATA     BYTE      P_SW2
      000000A2H   SFRSYM    DATA     BYTE      P_SW1
      000000CEH   SFRSYM    DATA     BYTE      SPCTL
      000000F8H   SFRSYM    DATA     BYTE      P7
      000000E8H   SFRSYM    DATA     BYTE      P6
      000000C8H   SFRSYM    DATA     BYTE      P5
      000000C0H   SFRSYM    DATA     BYTE      P4
      000000ABH   SFRSYM    DATA     BYTE      WKTCH
L251 LINKER/LOCATER V4.66.93.0                                                        03/28/2026  21:02:40  PAGE 66


      000000B0H   SFRSYM    DATA     BYTE      P3
      000000A0H   SFRSYM    DATA     BYTE      P2
      00000090H   SFRSYM    DATA     BYTE      P1
      00000080H   SFRSYM    DATA     BYTE      P0
      WR6         REGSYM    ---      INT       WDT_SCALE_s
      R15         REGSYM    ---      BYTE      i

      ---         MODULE    ---      ---       LQ_XINT
      00000094H   SFRSYM    DATA     BYTE      P0M0
      000000D0H   SFRSYM    DATA     BYTE      PSW
      0000009DH   SFRSYM    DATA     BYTE      IRCBAND
      00000097H   SFRSYM    DATA     BYTE      AUXR2
      000000EFH   SFRSYM    DATA     BYTE      AUXINTIF
      000000FDH   SFRSYM    DATA     BYTE      S4CON
      000000ACH   SFRSYM    DATA     BYTE      S3CON
      0000009AH   SFRSYM    DATA     BYTE      S2CON
      000000B7H   SFRSYM    DATA     BYTE      IPH
      000000CDH   SFRSYM    DATA     BYTE      SPSTAT
      000000DDH   SFRSYM    DATA     BYTE      T4T3M
      000000C1H   SFRSYM    DATA     BYTE      WDT_CONTR
      000000DFH   SFRSYM    DATA     BYTE      IP3
      000000F4H   SFRSYM    DATA     BYTE      USBCON
      000000B5H   SFRSYM    DATA     BYTE      IP2
      000000FFH   SFRSYM    DATA     BYTE      RSTCFG
      000000C7H   SFRSYM    DATA     BYTE      IAP_CONTR
      000000F9H   SFRSYM    DATA     BYTE      LINICR
      0000008EH   SFRSYM    DATA     BYTE      AUXR
      000000AFH   SFRSYM    DATA     BYTE      IE2
      00000088H   SFRSYM    DATA     BYTE      TCON
      00000089H   SFRSYM    DATA     BYTE      TMOD
      00000098H   SFRSYM    DATA     BYTE      SCON
      000000F1H   SFRSYM    DATA     BYTE      CANICR
      00000087H   SFRSYM    DATA     BYTE      PCON
      000000BCH   SFRSYM    DATA     BYTE      ADC_CONTR
      000000D1H   SFRSYM    DATA     BYTE      PSW1
      000000E7H   SFRSYM    DATA     BYTE      CMPCR2
      000000E6H   SFRSYM    DATA     BYTE      CMPCR1
      000000DEH   SFRSYM    DATA     BYTE      ADCCFG
      000000B8H   SFRSYM    DATA     BYTE      IP
      0000008FH   SFRSYM    DATA     BYTE      INTCLKO
      000000EEH   SFRSYM    DATA     BYTE      IP3H
      000000B6H   SFRSYM    DATA     BYTE      IP2H
      000000BFH   SFRSYM    DATA     BYTE      P_SW4
      000000A8H   SFRSYM    DATA     BYTE      IE
      000000BBH   SFRSYM    DATA     BYTE      P_SW3
      000000BAH   SFRSYM    DATA     BYTE      P_SW2
      000000A2H   SFRSYM    DATA     BYTE      P_SW1
      000000CEH   SFRSYM    DATA     BYTE      SPCTL
      000000F8H   SFRSYM    DATA     BYTE      P7
      000000A8H.7 SFRSYM    DATA     BIT       EA
      000000E8H   SFRSYM    DATA     BYTE      P6
      000000C8H   SFRSYM    DATA     BYTE      P5
      000000C0H   SFRSYM    DATA     BYTE      P4
      000000C9H   SFRSYM    DATA     BYTE      P5M1
      000000ABH   SFRSYM    DATA     BYTE      WKTCH
      000000B0H   SFRSYM    DATA     BYTE      P3
      000000B3H   SFRSYM    DATA     BYTE      P4M1
      000000CAH   SFRSYM    DATA     BYTE      P5M0
      000000A0H   SFRSYM    DATA     BYTE      P2
      000000B1H   SFRSYM    DATA     BYTE      P3M1
      000000B4H   SFRSYM    DATA     BYTE      P4M0
      00000090H   SFRSYM    DATA     BYTE      P1
      00000095H   SFRSYM    DATA     BYTE      P2M1
      000000B2H   SFRSYM    DATA     BYTE      P3M0
      00000080H   SFRSYM    DATA     BYTE      P0
L251 LINKER/LOCATER V4.66.93.0                                                        03/28/2026  21:02:40  PAGE 67


      00000091H   SFRSYM    DATA     BYTE      P1M1
      00000096H   SFRSYM    DATA     BYTE      P2M0
      00000092H   SFRSYM    DATA     BYTE      P1M0
      00000093H   SFRSYM    DATA     BYTE      P0M1
      R7          REGSYM    ---      BYTE      EXT_INTx
      R10         REGSYM    ---      BYTE      GPIO
      REG=7       REGSYM    ---      ---       GPIOx
      R10         REGSYM    ---      BYTE      GPIO_Px
      R5          REGSYM    ---      BYTE      Priority

      ---         MODULE    ---      ---       AI8051U_ADC_Isr
      00FF000EH   PUBLIC    CODE     ---       ADC_ISR_Handler
      000000D0H   SFRSYM    DATA     BYTE      PSW
      0000009DH   SFRSYM    DATA     BYTE      IRCBAND
      00000097H   SFRSYM    DATA     BYTE      AUXR2
      000000EFH   SFRSYM    DATA     BYTE      AUXINTIF
      000000FDH   SFRSYM    DATA     BYTE      S4CON
      000000ACH   SFRSYM    DATA     BYTE      S3CON
      0000009AH   SFRSYM    DATA     BYTE      S2CON
      000000B7H   SFRSYM    DATA     BYTE      IPH
      000000CDH   SFRSYM    DATA     BYTE      SPSTAT
      000000DDH   SFRSYM    DATA     BYTE      T4T3M
      000000C1H   SFRSYM    DATA     BYTE      WDT_CONTR
      000000DFH   SFRSYM    DATA     BYTE      IP3
      000000F4H   SFRSYM    DATA     BYTE      USBCON
      000000B5H   SFRSYM    DATA     BYTE      IP2
      000000FFH   SFRSYM    DATA     BYTE      RSTCFG
      000000BCH.5 SFRSYM    DATA     BIT       ADC_FLAG
      000000C7H   SFRSYM    DATA     BYTE      IAP_CONTR
      000000F9H   SFRSYM    DATA     BYTE      LINICR
      0000008EH   SFRSYM    DATA     BYTE      AUXR
      000000AFH   SFRSYM    DATA     BYTE      IE2
      00000088H   SFRSYM    DATA     BYTE      TCON
      00000089H   SFRSYM    DATA     BYTE      TMOD
      00000098H   SFRSYM    DATA     BYTE      SCON
      000000F1H   SFRSYM    DATA     BYTE      CANICR
      00000087H   SFRSYM    DATA     BYTE      PCON
      000000BCH   SFRSYM    DATA     BYTE      ADC_CONTR
      000000D1H   SFRSYM    DATA     BYTE      PSW1
      000000E7H   SFRSYM    DATA     BYTE      CMPCR2
      000000E6H   SFRSYM    DATA     BYTE      CMPCR1
      000000DEH   SFRSYM    DATA     BYTE      ADCCFG
      000000B8H   SFRSYM    DATA     BYTE      IP
      0000008FH   SFRSYM    DATA     BYTE      INTCLKO
      000000EEH   SFRSYM    DATA     BYTE      IP3H
      000000B6H   SFRSYM    DATA     BYTE      IP2H
      000000BFH   SFRSYM    DATA     BYTE      P_SW4
      000000A8H   SFRSYM    DATA     BYTE      IE
      000000BBH   SFRSYM    DATA     BYTE      P_SW3
      000000BAH   SFRSYM    DATA     BYTE      P_SW2
      000000A2H   SFRSYM    DATA     BYTE      P_SW1
      000000CEH   SFRSYM    DATA     BYTE      SPCTL
      000000F8H   SFRSYM    DATA     BYTE      P7
      000000E8H   SFRSYM    DATA     BYTE      P6
      000000C8H   SFRSYM    DATA     BYTE      P5
      000000C0H   SFRSYM    DATA     BYTE      P4
      000000ABH   SFRSYM    DATA     BYTE      WKTCH
      000000B0H   SFRSYM    DATA     BYTE      P3
      000000A0H   SFRSYM    DATA     BYTE      P2
      00000090H   SFRSYM    DATA     BYTE      P1
      00000080H   SFRSYM    DATA     BYTE      P0

      00FF000EH   BLOCK     CODE     ---       LVL=0
      00FF000EH   LINE      CODE     ---       #14
      00FF000EH   LINE      CODE     ---       #16
L251 LINKER/LOCATER V4.66.93.0                                                        03/28/2026  21:02:40  PAGE 68


      00FF0011H   LINE      CODE     ---       #20
      ---         BLOCKEND  ---      ---       LVL=0

      ---         MODULE    ---      ---       AI8051U_DMA_Isr
      00FF532EH   PUBLIC    CODE     ---       DMA_LCM_ISR_Handler
      00FF552EH   PUBLIC    CODE     ---       DMA_SPI_ISR_Handler
      00FF5810H   PUBLIC    CODE     ---       DMA_I2CR_ISR_Handler
      00FF583FH   PUBLIC    CODE     ---       DMA_I2CT_ISR_Handler
      00FF586EH   PUBLIC    CODE     ---       DMA_UART1RX_ISR_Handler
      00FF589DH   PUBLIC    CODE     ---       DMA_UART2RX_ISR_Handler
      00FF58CCH   PUBLIC    CODE     ---       DMA_UART3RX_ISR_Handler
      00FF58FBH   PUBLIC    CODE     ---       DMA_UART1TX_ISR_Handler
      00FF592AH   PUBLIC    CODE     ---       DMA_UART4RX_ISR_Handler
      00FF5959H   PUBLIC    CODE     ---       DMA_UART2TX_ISR_Handler
      00FF5988H   PUBLIC    CODE     ---       DMA_UART3TX_ISR_Handler
      00FF425AH   PUBLIC    CODE     ---       DMA_ISR_Handler
      00FF59B7H   PUBLIC    CODE     ---       DMA_UART4TX_ISR_Handler
      00FF5AC6H   PUBLIC    CODE     ---       DMA_ADC_ISR_Handler
      00FF59E6H   PUBLIC    CODE     ---       DMA_M2M_ISR_Handler
      00000020H.0 PUBLIC    BIT      BIT       DmaRx1Flag
      00000020H.1 PUBLIC    BIT      BIT       DmaRx2Flag
      00000020H.2 PUBLIC    BIT      BIT       DmaRx3Flag
      00000020H.3 PUBLIC    BIT      BIT       DmaTx1Flag
      00000020H.4 PUBLIC    BIT      BIT       DmaRx4Flag
      00000020H.5 PUBLIC    BIT      BIT       DmaTx2Flag
      00000020H.6 PUBLIC    BIT      BIT       DmaTx3Flag
      00000020H.7 PUBLIC    BIT      BIT       DmaTx4Flag
      00000021H.0 PUBLIC    BIT      BIT       s2uFlag
      00000021H.1 PUBLIC    BIT      BIT       u2sFlag
      00000021H.2 PUBLIC    BIT      BIT       DmaI2CRFlag
      00000021H.3 PUBLIC    BIT      BIT       DmaI2CTFlag
      00000021H.4 PUBLIC    BIT      BIT       UartSendFlag
      00000021H.5 PUBLIC    BIT      BIT       DmaLcmFlag
      00000021H.6 PUBLIC    BIT      BIT       SpiSendFlag
      00000021H.7 PUBLIC    BIT      BIT       DmaADCFlag
      00000022H.0 PUBLIC    BIT      BIT       DmaM2MFlag
      00000022H.1 PUBLIC    BIT      BIT       SpiRxFlag
      00000022H.2 PUBLIC    BIT      BIT       SpiTxFlag
      00010617H   PUBLIC    XDATA    WORD      LCM_Cnt
      000000D0H   SFRSYM    DATA     BYTE      PSW
      0000009DH   SFRSYM    DATA     BYTE      IRCBAND
      00000097H   SFRSYM    DATA     BYTE      AUXR2
      000000EFH   SFRSYM    DATA     BYTE      AUXINTIF
      000000FDH   SFRSYM    DATA     BYTE      S4CON
      000000ACH   SFRSYM    DATA     BYTE      S3CON
      0000009AH   SFRSYM    DATA     BYTE      S2CON
      000000B7H   SFRSYM    DATA     BYTE      IPH
      000000CDH   SFRSYM    DATA     BYTE      SPSTAT
      000000DDH   SFRSYM    DATA     BYTE      T4T3M
      000000C1H   SFRSYM    DATA     BYTE      WDT_CONTR
      000000DFH   SFRSYM    DATA     BYTE      IP3
      000000F4H   SFRSYM    DATA     BYTE      USBCON
      000000B5H   SFRSYM    DATA     BYTE      IP2
      000000FFH   SFRSYM    DATA     BYTE      RSTCFG
      000000B0H.4 SFRSYM    DATA     BIT       LCD_CS
      000000CEH.4 SFRSYM    DATA     BIT       MSTR
      000000C7H   SFRSYM    DATA     BYTE      IAP_CONTR
      000000F9H   SFRSYM    DATA     BYTE      LINICR
      0000008EH   SFRSYM    DATA     BYTE      AUXR
      000000AFH   SFRSYM    DATA     BYTE      IE2
      00000088H   SFRSYM    DATA     BYTE      TCON
      00000089H   SFRSYM    DATA     BYTE      TMOD
      00000098H   SFRSYM    DATA     BYTE      SCON
      000000F1H   SFRSYM    DATA     BYTE      CANICR
      00000087H   SFRSYM    DATA     BYTE      PCON
L251 LINKER/LOCATER V4.66.93.0                                                        03/28/2026  21:02:40  PAGE 69


      000000BCH   SFRSYM    DATA     BYTE      ADC_CONTR
      000000D1H   SFRSYM    DATA     BYTE      PSW1
      000000E7H   SFRSYM    DATA     BYTE      CMPCR2
      000000E6H   SFRSYM    DATA     BYTE      CMPCR1
      000000DEH   SFRSYM    DATA     BYTE      ADCCFG
      000000B8H   SFRSYM    DATA     BYTE      IP
      0000008FH   SFRSYM    DATA     BYTE      INTCLKO
      000000EEH   SFRSYM    DATA     BYTE      IP3H
      000000B6H   SFRSYM    DATA     BYTE      IP2H
      000000BFH   SFRSYM    DATA     BYTE      P_SW4
      000000A8H   SFRSYM    DATA     BYTE      IE
      000000BBH   SFRSYM    DATA     BYTE      P_SW3
      000000BAH   SFRSYM    DATA     BYTE      P_SW2
      000000A2H   SFRSYM    DATA     BYTE      P_SW1
      000000CEH   SFRSYM    DATA     BYTE      SPCTL
      000000F8H   SFRSYM    DATA     BYTE      P7
      000000E8H   SFRSYM    DATA     BYTE      P6
      000000A0H.4 SFRSYM    DATA     BIT       SPI_SS_2
      000000C8H   SFRSYM    DATA     BYTE      P5
      000000C0H   SFRSYM    DATA     BYTE      P4
      000000ABH   SFRSYM    DATA     BYTE      WKTCH
      000000B0H   SFRSYM    DATA     BYTE      P3
      000000A0H   SFRSYM    DATA     BYTE      P2
      00000090H   SFRSYM    DATA     BYTE      P1
      00000080H   SFRSYM    DATA     BYTE      P0

      00FF5AC6H   BLOCK     CODE     ---       LVL=0
      00FF5AC6H   LINE      CODE     ---       #42
      00FF5ACAH   LINE      CODE     ---       #45
      00FF5AD8H   LINE      CODE     ---       #47
      00FF5AE0H   LINE      CODE     ---       #48
      00FF5AE2H   LINE      CODE     ---       #49
      ---         BLOCKEND  ---      ---       LVL=0

      00FF59E6H   BLOCK     CODE     ---       LVL=0
      00FF59E6H   LINE      CODE     ---       #59
      00FF59EAH   LINE      CODE     ---       #62
      00FF59F8H   LINE      CODE     ---       #64
      00FF5A00H   LINE      CODE     ---       #65
      00FF5A02H   LINE      CODE     ---       #66
      00FF5A05H   LINE      CODE     ---       #68
      00FF5A07H   LINE      CODE     ---       #69
      00FF5A09H   LINE      CODE     ---       #70
      00FF5A09H   LINE      CODE     ---       #71
      00FF5A0CH   LINE      CODE     ---       #73
      00FF5A0EH   LINE      CODE     ---       #74
      00FF5A10H   LINE      CODE     ---       #75
      00FF5A10H   LINE      CODE     ---       #77
      ---         BLOCKEND  ---      ---       LVL=0

      00FF58FBH   BLOCK     CODE     ---       LVL=0
      00FF58FBH   LINE      CODE     ---       #86
      00FF58FFH   LINE      CODE     ---       #89
      00FF590DH   LINE      CODE     ---       #91
      00FF5915H   LINE      CODE     ---       #92
      00FF5917H   LINE      CODE     ---       #93
      00FF5917H   LINE      CODE     ---       #94
      00FF591DH   LINE      CODE     ---       #96
      00FF5925H   LINE      CODE     ---       #97
      ---         BLOCKEND  ---      ---       LVL=0

      00FF586EH   BLOCK     CODE     ---       LVL=0
      00FF586EH   LINE      CODE     ---       #107
      00FF5872H   LINE      CODE     ---       #110
      00FF5880H   LINE      CODE     ---       #112
L251 LINKER/LOCATER V4.66.93.0                                                        03/28/2026  21:02:40  PAGE 70


      00FF5888H   LINE      CODE     ---       #113
      00FF588AH   LINE      CODE     ---       #117
      00FF588AH   LINE      CODE     ---       #118
      00FF5890H   LINE      CODE     ---       #120
      00FF5898H   LINE      CODE     ---       #121
      ---         BLOCKEND  ---      ---       LVL=0

      00FF5959H   BLOCK     CODE     ---       LVL=0
      00FF5959H   LINE      CODE     ---       #131
      00FF595DH   LINE      CODE     ---       #134
      00FF596BH   LINE      CODE     ---       #136
      00FF5973H   LINE      CODE     ---       #137
      00FF5975H   LINE      CODE     ---       #138
      00FF5975H   LINE      CODE     ---       #139
      00FF597BH   LINE      CODE     ---       #141
      00FF5983H   LINE      CODE     ---       #142
      ---         BLOCKEND  ---      ---       LVL=0

      00FF589DH   BLOCK     CODE     ---       LVL=0
      00FF589DH   LINE      CODE     ---       #152
      00FF58A1H   LINE      CODE     ---       #155
      00FF58AFH   LINE      CODE     ---       #157
      00FF58B7H   LINE      CODE     ---       #158
      00FF58B9H   LINE      CODE     ---       #162
      00FF58B9H   LINE      CODE     ---       #163
      00FF58BFH   LINE      CODE     ---       #165
      00FF58C7H   LINE      CODE     ---       #166
      ---         BLOCKEND  ---      ---       LVL=0

      00FF5988H   BLOCK     CODE     ---       LVL=0
      00FF5988H   LINE      CODE     ---       #176
      00FF598CH   LINE      CODE     ---       #179
      00FF599AH   LINE      CODE     ---       #181
      00FF59A2H   LINE      CODE     ---       #182
      00FF59A4H   LINE      CODE     ---       #183
      00FF59A4H   LINE      CODE     ---       #184
      00FF59AAH   LINE      CODE     ---       #186
      00FF59B2H   LINE      CODE     ---       #187
      ---         BLOCKEND  ---      ---       LVL=0

      00FF58CCH   BLOCK     CODE     ---       LVL=0
      00FF58CCH   LINE      CODE     ---       #197
      00FF58D0H   LINE      CODE     ---       #200
      00FF58DEH   LINE      CODE     ---       #202
      00FF58E6H   LINE      CODE     ---       #203
      00FF58E8H   LINE      CODE     ---       #207
      00FF58E8H   LINE      CODE     ---       #208
      00FF58EEH   LINE      CODE     ---       #210
      00FF58F6H   LINE      CODE     ---       #211
      ---         BLOCKEND  ---      ---       LVL=0

      00FF59B7H   BLOCK     CODE     ---       LVL=0
      00FF59B7H   LINE      CODE     ---       #221
      00FF59BBH   LINE      CODE     ---       #224
      00FF59C9H   LINE      CODE     ---       #226
      00FF59D1H   LINE      CODE     ---       #227
      00FF59D3H   LINE      CODE     ---       #228
      00FF59D3H   LINE      CODE     ---       #229
      00FF59D9H   LINE      CODE     ---       #231
      00FF59E1H   LINE      CODE     ---       #232
      ---         BLOCKEND  ---      ---       LVL=0

      00FF592AH   BLOCK     CODE     ---       LVL=0
      00FF592AH   LINE      CODE     ---       #242
      00FF592EH   LINE      CODE     ---       #245
L251 LINKER/LOCATER V4.66.93.0                                                        03/28/2026  21:02:40  PAGE 71


      00FF593CH   LINE      CODE     ---       #247
      00FF5944H   LINE      CODE     ---       #248
      00FF5946H   LINE      CODE     ---       #252
      00FF5946H   LINE      CODE     ---       #253
      00FF594CH   LINE      CODE     ---       #255
      00FF5954H   LINE      CODE     ---       #256
      ---         BLOCKEND  ---      ---       LVL=0

      00FF552EH   BLOCK     CODE     ---       LVL=0
      00FF552EH   LINE      CODE     ---       #266
      00FF5532H   LINE      CODE     ---       #269
      00FF5540H   LINE      CODE     ---       #271
      00FF5548H   LINE      CODE     ---       #272
      00FF554CH   LINE      CODE     ---       #274
      00FF554EH   LINE      CODE     ---       #275
      00FF5550H   LINE      CODE     ---       #276
      00FF5552H   LINE      CODE     ---       #279
      00FF5554H   LINE      CODE     ---       #280
      00FF5554H   LINE      CODE     ---       #281
      00FF5554H   LINE      CODE     ---       #282
      00FF555AH   LINE      CODE     ---       #284
      00FF5562H   LINE      CODE     ---       #285
      00FF5562H   LINE      CODE     ---       #286
      00FF5568H   LINE      CODE     ---       #288
      00FF5570H   LINE      CODE     ---       #289
      ---         BLOCKEND  ---      ---       LVL=0

      00FF583FH   BLOCK     CODE     ---       LVL=0
      00FF583FH   LINE      CODE     ---       #299
      00FF5843H   LINE      CODE     ---       #302
      00FF5851H   LINE      CODE     ---       #304
      00FF5859H   LINE      CODE     ---       #305
      00FF585BH   LINE      CODE     ---       #306
      00FF585BH   LINE      CODE     ---       #307
      00FF5861H   LINE      CODE     ---       #309
      00FF5869H   LINE      CODE     ---       #310
      ---         BLOCKEND  ---      ---       LVL=0

      00FF5810H   BLOCK     CODE     ---       LVL=0
      00FF5810H   LINE      CODE     ---       #320
      00FF5814H   LINE      CODE     ---       #323
      00FF5822H   LINE      CODE     ---       #325
      00FF582AH   LINE      CODE     ---       #326
      00FF582CH   LINE      CODE     ---       #327
      00FF582CH   LINE      CODE     ---       #328
      00FF5832H   LINE      CODE     ---       #330
      00FF583AH   LINE      CODE     ---       #331
      ---         BLOCKEND  ---      ---       LVL=0

      00FF532EH   BLOCK     CODE     ---       LVL=0
      00FF532EH   LINE      CODE     ---       #341
      00FF5338H   LINE      CODE     ---       #344
      00FF5346H   LINE      CODE     ---       #346
      00FF5349H   LINE      CODE     ---       #348
      00FF534BH   LINE      CODE     ---       #349
      00FF534CH   LINE      CODE     ---       #350
      00FF534EH   LINE      CODE     ---       #353
      00FF5359H   LINE      CODE     ---       #354
      00FF5363H   LINE      CODE     ---       #356
      00FF536FH   LINE      CODE     ---       #357
      00FF5371H   LINE      CODE     ---       #358
      00FF5373H   LINE      CODE     ---       #361
      00FF5380H   LINE      CODE     ---       #362
      00FF5380H   LINE      CODE     ---       #363
      00FF5380H   LINE      CODE     ---       #364
L251 LINKER/LOCATER V4.66.93.0                                                        03/28/2026  21:02:40  PAGE 72


      00FF5384H   LINE      CODE     ---       #365
      ---         BLOCKEND  ---      ---       LVL=0

      00FF425AH   BLOCK     CODE     ---       LVL=0
      00FF425AH   LINE      CODE     ---       #375
      00FF425EH   LINE      CODE     ---       #380
      00FF426CH   LINE      CODE     ---       #382
      00FF4274H   LINE      CODE     ---       #383
      00FF4276H   LINE      CODE     ---       #384
      00FF4276H   LINE      CODE     ---       #387
      00FF4284H   LINE      CODE     ---       #389
      00FF428CH   LINE      CODE     ---       #390
      00FF428EH   LINE      CODE     ---       #391
      00FF4291H   LINE      CODE     ---       #393
      00FF4293H   LINE      CODE     ---       #394
      00FF4295H   LINE      CODE     ---       #395
      00FF4295H   LINE      CODE     ---       #396
      00FF4298H   LINE      CODE     ---       #398
      00FF429AH   LINE      CODE     ---       #399
      00FF429CH   LINE      CODE     ---       #400
      00FF429CH   LINE      CODE     ---       #404
      00FF42AAH   LINE      CODE     ---       #406
      00FF42B2H   LINE      CODE     ---       #407
      00FF42B4H   LINE      CODE     ---       #408
      00FF42B4H   LINE      CODE     ---       #409
      00FF42BAH   LINE      CODE     ---       #411
      00FF42C2H   LINE      CODE     ---       #412
      00FF42C2H   LINE      CODE     ---       #414
      00FF42D0H   LINE      CODE     ---       #416
      00FF42D8H   LINE      CODE     ---       #417
      00FF42DAH   LINE      CODE     ---       #418
      00FF42DAH   LINE      CODE     ---       #419
      00FF42E0H   LINE      CODE     ---       #421
      00FF42E8H   LINE      CODE     ---       #422
      00FF42E8H   LINE      CODE     ---       #424
      00FF42F6H   LINE      CODE     ---       #426
      00FF42FEH   LINE      CODE     ---       #427
      00FF4300H   LINE      CODE     ---       #428
      00FF4300H   LINE      CODE     ---       #429
      00FF4306H   LINE      CODE     ---       #431
      00FF430EH   LINE      CODE     ---       #432
      00FF430EH   LINE      CODE     ---       #434
      00FF431CH   LINE      CODE     ---       #436
      00FF4324H   LINE      CODE     ---       #437
      00FF4326H   LINE      CODE     ---       #438
      00FF4326H   LINE      CODE     ---       #439
      00FF432CH   LINE      CODE     ---       #441
      00FF4334H   LINE      CODE     ---       #442
      00FF4334H   LINE      CODE     ---       #444
      00FF4342H   LINE      CODE     ---       #446
      00FF434AH   LINE      CODE     ---       #447
      00FF434CH   LINE      CODE     ---       #448
      00FF434CH   LINE      CODE     ---       #449
      00FF4352H   LINE      CODE     ---       #451
      00FF435AH   LINE      CODE     ---       #452
      00FF435AH   LINE      CODE     ---       #454
      00FF4368H   LINE      CODE     ---       #456
      00FF4370H   LINE      CODE     ---       #457
      00FF4372H   LINE      CODE     ---       #458
      00FF4372H   LINE      CODE     ---       #459
      00FF4378H   LINE      CODE     ---       #461
      00FF4380H   LINE      CODE     ---       #462
      00FF4380H   LINE      CODE     ---       #464
      00FF438EH   LINE      CODE     ---       #466
      00FF4396H   LINE      CODE     ---       #467
L251 LINKER/LOCATER V4.66.93.0                                                        03/28/2026  21:02:40  PAGE 73


      00FF4398H   LINE      CODE     ---       #468
      00FF4398H   LINE      CODE     ---       #469
      00FF439EH   LINE      CODE     ---       #471
      00FF43A6H   LINE      CODE     ---       #472
      00FF43A6H   LINE      CODE     ---       #474
      00FF43B4H   LINE      CODE     ---       #476
      00FF43BCH   LINE      CODE     ---       #477
      00FF43BEH   LINE      CODE     ---       #478
      00FF43BEH   LINE      CODE     ---       #479
      00FF43C4H   LINE      CODE     ---       #481
      00FF43CCH   LINE      CODE     ---       #482
      ---         BLOCKEND  ---      ---       LVL=0

      ---         MODULE    ---      ---       AI8051U_Exti_Isr
      00FF0012H   PUBLIC    CODE     ---       INT0_ISR_Handler
      00FF0019H   PUBLIC    CODE     ---       INT1_ISR_Handler
      00FF001AH   PUBLIC    CODE     ---       INT2_ISR_Handler
      00FF0021H   PUBLIC    CODE     ---       INT3_ISR_Handler
      00FF0022H   PUBLIC    CODE     ---       INT4_ISR_Handler
      000000D0H   SFRSYM    DATA     BYTE      PSW
      0000009DH   SFRSYM    DATA     BYTE      IRCBAND
      00000097H   SFRSYM    DATA     BYTE      AUXR2
      000000EFH   SFRSYM    DATA     BYTE      AUXINTIF
      000000FDH   SFRSYM    DATA     BYTE      S4CON
      000000ACH   SFRSYM    DATA     BYTE      S3CON
      0000009AH   SFRSYM    DATA     BYTE      S2CON
      000000B7H   SFRSYM    DATA     BYTE      IPH
      000000CDH   SFRSYM    DATA     BYTE      SPSTAT
      000000DDH   SFRSYM    DATA     BYTE      T4T3M
      000000C1H   SFRSYM    DATA     BYTE      WDT_CONTR
      000000DFH   SFRSYM    DATA     BYTE      IP3
      000000F4H   SFRSYM    DATA     BYTE      USBCON
      000000B5H   SFRSYM    DATA     BYTE      IP2
      000000FFH   SFRSYM    DATA     BYTE      RSTCFG
      000000C7H   SFRSYM    DATA     BYTE      IAP_CONTR
      000000F9H   SFRSYM    DATA     BYTE      LINICR
      0000008EH   SFRSYM    DATA     BYTE      AUXR
      000000AFH   SFRSYM    DATA     BYTE      IE2
      00000088H   SFRSYM    DATA     BYTE      TCON
      00000089H   SFRSYM    DATA     BYTE      TMOD
      00000098H   SFRSYM    DATA     BYTE      SCON
      000000F1H   SFRSYM    DATA     BYTE      CANICR
      00000087H   SFRSYM    DATA     BYTE      PCON
      000000BCH   SFRSYM    DATA     BYTE      ADC_CONTR
      000000D1H   SFRSYM    DATA     BYTE      PSW1
      000000E7H   SFRSYM    DATA     BYTE      CMPCR2
      000000E6H   SFRSYM    DATA     BYTE      CMPCR1
      000000DEH   SFRSYM    DATA     BYTE      ADCCFG
      000000B8H   SFRSYM    DATA     BYTE      IP
      0000008FH   SFRSYM    DATA     BYTE      INTCLKO
      000000EEH   SFRSYM    DATA     BYTE      IP3H
      000000B6H   SFRSYM    DATA     BYTE      IP2H
      000000BFH   SFRSYM    DATA     BYTE      P_SW4
      000000A8H   SFRSYM    DATA     BYTE      IE
      000000BBH   SFRSYM    DATA     BYTE      P_SW3
      000000BAH   SFRSYM    DATA     BYTE      P_SW2
      000000A2H   SFRSYM    DATA     BYTE      P_SW1
      000000CEH   SFRSYM    DATA     BYTE      SPCTL
      000000F8H   SFRSYM    DATA     BYTE      P7
      000000E8H   SFRSYM    DATA     BYTE      P6
      000000C8H   SFRSYM    DATA     BYTE      P5
      000000C0H   SFRSYM    DATA     BYTE      P4
      000000ABH   SFRSYM    DATA     BYTE      WKTCH
      000000B0H   SFRSYM    DATA     BYTE      P3
      000000A0H   SFRSYM    DATA     BYTE      P2
L251 LINKER/LOCATER V4.66.93.0                                                        03/28/2026  21:02:40  PAGE 74


      00000090H   SFRSYM    DATA     BYTE      P1
      00000080H   SFRSYM    DATA     BYTE      P0

      00FF0012H   BLOCK     CODE     ---       LVL=0
      00FF0012H   LINE      CODE     ---       #20
      00FF0012H   LINE      CODE     ---       #24
      ---         BLOCKEND  ---      ---       LVL=0

      00FF0019H   BLOCK     CODE     ---       LVL=0
      00FF0019H   LINE      CODE     ---       #33
      00FF0019H   LINE      CODE     ---       #43
      ---         BLOCKEND  ---      ---       LVL=0

      00FF001AH   BLOCK     CODE     ---       LVL=0
      00FF001AH   LINE      CODE     ---       #52
      00FF001AH   LINE      CODE     ---       #56
      ---         BLOCKEND  ---      ---       LVL=0

      00FF0021H   BLOCK     CODE     ---       LVL=0
      00FF0021H   LINE      CODE     ---       #65
      00FF0021H   LINE      CODE     ---       #69
      ---         BLOCKEND  ---      ---       LVL=0

      00FF0022H   BLOCK     CODE     ---       LVL=0
      00FF0022H   LINE      CODE     ---       #78
      00FF0022H   LINE      CODE     ---       #83
      ---         BLOCKEND  ---      ---       LVL=0

      ---         MODULE    ---      ---       AI8051U_GPIO_Isr
      00FF5AE7H   PUBLIC    CODE     ---       P0INT_ISR_Handler
      00FF5AA4H   PUBLIC    CODE     ---       P1INT_ISR_Handler
      000000D0H   SFRSYM    DATA     BYTE      PSW
      0000009DH   SFRSYM    DATA     BYTE      IRCBAND
      00000097H   SFRSYM    DATA     BYTE      AUXR2
      000000EFH   SFRSYM    DATA     BYTE      AUXINTIF
      000000FDH   SFRSYM    DATA     BYTE      S4CON
      000000ACH   SFRSYM    DATA     BYTE      S3CON
      0000009AH   SFRSYM    DATA     BYTE      S2CON
      000000B7H   SFRSYM    DATA     BYTE      IPH
      000000CDH   SFRSYM    DATA     BYTE      SPSTAT
      000000DDH   SFRSYM    DATA     BYTE      T4T3M
      000000C1H   SFRSYM    DATA     BYTE      WDT_CONTR
      000000DFH   SFRSYM    DATA     BYTE      IP3
      000000F4H   SFRSYM    DATA     BYTE      USBCON
      000000B5H   SFRSYM    DATA     BYTE      IP2
      000000FFH   SFRSYM    DATA     BYTE      RSTCFG
      000000C7H   SFRSYM    DATA     BYTE      IAP_CONTR
      000000F9H   SFRSYM    DATA     BYTE      LINICR
      0000008EH   SFRSYM    DATA     BYTE      AUXR
      000000AFH   SFRSYM    DATA     BYTE      IE2
      00000088H   SFRSYM    DATA     BYTE      TCON
      00000089H   SFRSYM    DATA     BYTE      TMOD
      00000098H   SFRSYM    DATA     BYTE      SCON
      000000F1H   SFRSYM    DATA     BYTE      CANICR
      00000087H   SFRSYM    DATA     BYTE      PCON
      000000BCH   SFRSYM    DATA     BYTE      ADC_CONTR
      000000D1H   SFRSYM    DATA     BYTE      PSW1
      000000E7H   SFRSYM    DATA     BYTE      CMPCR2
      000000E6H   SFRSYM    DATA     BYTE      CMPCR1
      000000DEH   SFRSYM    DATA     BYTE      ADCCFG
      000000B8H   SFRSYM    DATA     BYTE      IP
      0000008FH   SFRSYM    DATA     BYTE      INTCLKO
      000000EEH   SFRSYM    DATA     BYTE      IP3H
      000000B6H   SFRSYM    DATA     BYTE      IP2H
      000000BFH   SFRSYM    DATA     BYTE      P_SW4
L251 LINKER/LOCATER V4.66.93.0                                                        03/28/2026  21:02:40  PAGE 75


      000000A8H   SFRSYM    DATA     BYTE      IE
      000000BBH   SFRSYM    DATA     BYTE      P_SW3
      000000BAH   SFRSYM    DATA     BYTE      P_SW2
      000000A2H   SFRSYM    DATA     BYTE      P_SW1
      000000CEH   SFRSYM    DATA     BYTE      SPCTL
      000000F8H   SFRSYM    DATA     BYTE      P7
      000000E8H   SFRSYM    DATA     BYTE      P6
      000000C8H   SFRSYM    DATA     BYTE      P5
      000000C0H   SFRSYM    DATA     BYTE      P4
      000000ABH   SFRSYM    DATA     BYTE      WKTCH
      000000B0H   SFRSYM    DATA     BYTE      P3
      000000A0H   SFRSYM    DATA     BYTE      P2
      00000090H   SFRSYM    DATA     BYTE      P1
      00000080H   SFRSYM    DATA     BYTE      P0

      00FF5AE7H   BLOCK     CODE     ---       LVL=0
      00FF5AEBH   BLOCK     CODE     NEAR LAB  LVL=1
      R11         REGSYM    ---      BYTE      P0x_IRQ
      ---         BLOCKEND  ---      ---       LVL=1
      00FF5AE7H   LINE      CODE     ---       #26
      00FF5AEBH   LINE      CODE     ---       #27
      00FF5AEBH   LINE      CODE     ---       #29
      00FF5AF6H   LINE      CODE     ---       #30
      00FF5AF8H   LINE      CODE     ---       #32
      00FF5AFCH   LINE      CODE     ---       #33
      00FF5AFCH   LINE      CODE     ---       #38
      00FF5AFCH   LINE      CODE     ---       #40
      00FF5AFCH   LINE      CODE     ---       #45
      00FF5AFCH   LINE      CODE     ---       #48
      ---         BLOCKEND  ---      ---       LVL=0

      00FF5AA4H   BLOCK     CODE     ---       LVL=0
      00FF5AA8H   BLOCK     CODE     NEAR LAB  LVL=1
      R11         REGSYM    ---      BYTE      P1x_IRQ
      ---         BLOCKEND  ---      ---       LVL=1
      00FF5AA4H   LINE      CODE     ---       #58
      00FF5AA8H   LINE      CODE     ---       #59
      00FF5AA8H   LINE      CODE     ---       #61
      00FF5AB3H   LINE      CODE     ---       #62
      00FF5AB5H   LINE      CODE     ---       #64
      00FF5AC1H   LINE      CODE     ---       #65
      00FF5AC1H   LINE      CODE     ---       #69
      00FF5AC1H   LINE      CODE     ---       #72
      ---         BLOCKEND  ---      ---       LVL=0

      ---         MODULE    ---      ---       AI8051U_PWM_Isr
      00FF5095H   PUBLIC    CODE     ---       PWMA_ISR_Handler
      00FF5116H   PUBLIC    CODE     ---       PWMB_ISR_Handler
      000000D0H   SFRSYM    DATA     BYTE      PSW
      0000009DH   SFRSYM    DATA     BYTE      IRCBAND
      00000097H   SFRSYM    DATA     BYTE      AUXR2
      000000EFH   SFRSYM    DATA     BYTE      AUXINTIF
      000000FDH   SFRSYM    DATA     BYTE      S4CON
      000000ACH   SFRSYM    DATA     BYTE      S3CON
      0000009AH   SFRSYM    DATA     BYTE      S2CON
      000000B7H   SFRSYM    DATA     BYTE      IPH
      000000CDH   SFRSYM    DATA     BYTE      SPSTAT
      000000DDH   SFRSYM    DATA     BYTE      T4T3M
      000000C1H   SFRSYM    DATA     BYTE      WDT_CONTR
      000000DFH   SFRSYM    DATA     BYTE      IP3
      000000F4H   SFRSYM    DATA     BYTE      USBCON
      000000B5H   SFRSYM    DATA     BYTE      IP2
      000000FFH   SFRSYM    DATA     BYTE      RSTCFG
      000000C7H   SFRSYM    DATA     BYTE      IAP_CONTR
      000000F9H   SFRSYM    DATA     BYTE      LINICR
L251 LINKER/LOCATER V4.66.93.0                                                        03/28/2026  21:02:40  PAGE 76


      0000008EH   SFRSYM    DATA     BYTE      AUXR
      000000AFH   SFRSYM    DATA     BYTE      IE2
      00000088H   SFRSYM    DATA     BYTE      TCON
      00000089H   SFRSYM    DATA     BYTE      TMOD
      00000098H   SFRSYM    DATA     BYTE      SCON
      000000F1H   SFRSYM    DATA     BYTE      CANICR
      00000087H   SFRSYM    DATA     BYTE      PCON
      000000BCH   SFRSYM    DATA     BYTE      ADC_CONTR
      000000D1H   SFRSYM    DATA     BYTE      PSW1
      000000E7H   SFRSYM    DATA     BYTE      CMPCR2
      000000E6H   SFRSYM    DATA     BYTE      CMPCR1
      000000DEH   SFRSYM    DATA     BYTE      ADCCFG
      000000B8H   SFRSYM    DATA     BYTE      IP
      0000008FH   SFRSYM    DATA     BYTE      INTCLKO
      000000EEH   SFRSYM    DATA     BYTE      IP3H
      000000B6H   SFRSYM    DATA     BYTE      IP2H
      000000BFH   SFRSYM    DATA     BYTE      P_SW4
      000000A8H   SFRSYM    DATA     BYTE      IE
      000000BBH   SFRSYM    DATA     BYTE      P_SW3
      000000BAH   SFRSYM    DATA     BYTE      P_SW2
      000000A2H   SFRSYM    DATA     BYTE      P_SW1
      000000CEH   SFRSYM    DATA     BYTE      SPCTL
      000000F8H   SFRSYM    DATA     BYTE      P7
      000000E8H   SFRSYM    DATA     BYTE      P6
      000000C8H   SFRSYM    DATA     BYTE      P5
      000000C0H   SFRSYM    DATA     BYTE      P4
      000000ABH   SFRSYM    DATA     BYTE      WKTCH
      000000B0H   SFRSYM    DATA     BYTE      P3
      000000A0H   SFRSYM    DATA     BYTE      P2
      00000090H   SFRSYM    DATA     BYTE      P1
      00000080H   SFRSYM    DATA     BYTE      P0

      00FF5095H   BLOCK     CODE     ---       LVL=0
      00FF5095H   LINE      CODE     ---       #14
      00FF5099H   LINE      CODE     ---       #17
      00FF50A7H   LINE      CODE     ---       #19
      00FF50AFH   LINE      CODE     ---       #21
      00FF50AFH   LINE      CODE     ---       #22
      00FF50B5H   LINE      CODE     ---       #24
      00FF50BDH   LINE      CODE     ---       #26
      00FF50BDH   LINE      CODE     ---       #27
      00FF50C3H   LINE      CODE     ---       #29
      00FF50CBH   LINE      CODE     ---       #31
      00FF50CBH   LINE      CODE     ---       #32
      00FF50D1H   LINE      CODE     ---       #34
      00FF50D9H   LINE      CODE     ---       #36
      00FF50D9H   LINE      CODE     ---       #37
      00FF50DFH   LINE      CODE     ---       #39
      00FF50E7H   LINE      CODE     ---       #41
      00FF50E7H   LINE      CODE     ---       #42
      00FF50EDH   LINE      CODE     ---       #44
      00FF50F5H   LINE      CODE     ---       #46
      00FF50F5H   LINE      CODE     ---       #47
      00FF50FBH   LINE      CODE     ---       #49
      00FF5103H   LINE      CODE     ---       #51
      00FF5103H   LINE      CODE     ---       #52
      00FF5109H   LINE      CODE     ---       #54
      00FF5111H   LINE      CODE     ---       #56
      ---         BLOCKEND  ---      ---       LVL=0

      00FF5116H   BLOCK     CODE     ---       LVL=0
      00FF5116H   LINE      CODE     ---       #66
      00FF511AH   LINE      CODE     ---       #69
      00FF5128H   LINE      CODE     ---       #71
      00FF5130H   LINE      CODE     ---       #73
L251 LINKER/LOCATER V4.66.93.0                                                        03/28/2026  21:02:40  PAGE 77


      00FF5130H   LINE      CODE     ---       #74
      00FF5136H   LINE      CODE     ---       #76
      00FF513EH   LINE      CODE     ---       #78
      00FF513EH   LINE      CODE     ---       #79
      00FF5144H   LINE      CODE     ---       #81
      00FF514CH   LINE      CODE     ---       #83
      00FF514CH   LINE      CODE     ---       #84
      00FF5152H   LINE      CODE     ---       #86
      00FF515AH   LINE      CODE     ---       #88
      00FF515AH   LINE      CODE     ---       #89
      00FF5160H   LINE      CODE     ---       #91
      00FF5168H   LINE      CODE     ---       #93
      00FF5168H   LINE      CODE     ---       #94
      00FF516EH   LINE      CODE     ---       #96
      00FF5176H   LINE      CODE     ---       #98
      00FF5176H   LINE      CODE     ---       #99
      00FF517CH   LINE      CODE     ---       #101
      00FF5184H   LINE      CODE     ---       #103
      00FF5184H   LINE      CODE     ---       #104
      00FF518AH   LINE      CODE     ---       #106
      00FF5192H   LINE      CODE     ---       #108
      ---         BLOCKEND  ---      ---       LVL=0

      ---         MODULE    ---      ---       AI8051U_SPI_Isr
      00FF564AH   PUBLIC    CODE     ---       SPI_ISR_Handler
      0001061CH   PUBLIC    XDATA    BYTE      SPI_RxCnt
      000000CFH   SFRSYM    DATA     BYTE      SPDAT
      000000D0H   SFRSYM    DATA     BYTE      PSW
      0000009DH   SFRSYM    DATA     BYTE      IRCBAND
      00000097H   SFRSYM    DATA     BYTE      AUXR2
      000000EFH   SFRSYM    DATA     BYTE      AUXINTIF
      000000FDH   SFRSYM    DATA     BYTE      S4CON
      000000ACH   SFRSYM    DATA     BYTE      S3CON
      0000009AH   SFRSYM    DATA     BYTE      S2CON
      000000B7H   SFRSYM    DATA     BYTE      IPH
      000000CDH   SFRSYM    DATA     BYTE      SPSTAT
      000000DDH   SFRSYM    DATA     BYTE      T4T3M
      000000C1H   SFRSYM    DATA     BYTE      WDT_CONTR
      000000DFH   SFRSYM    DATA     BYTE      IP3
      000000F4H   SFRSYM    DATA     BYTE      USBCON
      000000B5H   SFRSYM    DATA     BYTE      IP2
      000000FFH   SFRSYM    DATA     BYTE      RSTCFG
      000000CEH.4 SFRSYM    DATA     BIT       MSTR
      000000C7H   SFRSYM    DATA     BYTE      IAP_CONTR
      000000F9H   SFRSYM    DATA     BYTE      LINICR
      0000008EH   SFRSYM    DATA     BYTE      AUXR
      000000AFH   SFRSYM    DATA     BYTE      IE2
      000000CDH.6 SFRSYM    DATA     BIT       WCOL
      00000088H   SFRSYM    DATA     BYTE      TCON
      00000089H   SFRSYM    DATA     BYTE      TMOD
      00000098H   SFRSYM    DATA     BYTE      SCON
      000000CDH.7 SFRSYM    DATA     BIT       SPIF
      000000F1H   SFRSYM    DATA     BYTE      CANICR
      00000087H   SFRSYM    DATA     BYTE      PCON
      000000BCH   SFRSYM    DATA     BYTE      ADC_CONTR
      000000D1H   SFRSYM    DATA     BYTE      PSW1
      000000E7H   SFRSYM    DATA     BYTE      CMPCR2
      000000E6H   SFRSYM    DATA     BYTE      CMPCR1
      000000DEH   SFRSYM    DATA     BYTE      ADCCFG
      000000B8H   SFRSYM    DATA     BYTE      IP
      0000008FH   SFRSYM    DATA     BYTE      INTCLKO
      000000EEH   SFRSYM    DATA     BYTE      IP3H
      000000B6H   SFRSYM    DATA     BYTE      IP2H
      000000BFH   SFRSYM    DATA     BYTE      P_SW4
      000000A8H   SFRSYM    DATA     BYTE      IE
L251 LINKER/LOCATER V4.66.93.0                                                        03/28/2026  21:02:40  PAGE 78


      000000BBH   SFRSYM    DATA     BYTE      P_SW3
      000000BAH   SFRSYM    DATA     BYTE      P_SW2
      000000A2H   SFRSYM    DATA     BYTE      P_SW1
      000000CEH   SFRSYM    DATA     BYTE      SPCTL
      000000F8H   SFRSYM    DATA     BYTE      P7
      000000E8H   SFRSYM    DATA     BYTE      P6
      000000C8H   SFRSYM    DATA     BYTE      P5
      000000C0H   SFRSYM    DATA     BYTE      P4
      000000ABH   SFRSYM    DATA     BYTE      WKTCH
      000000B0H   SFRSYM    DATA     BYTE      P3
      000000A0H   SFRSYM    DATA     BYTE      P2
      00000090H   SFRSYM    DATA     BYTE      P1
      00000080H   SFRSYM    DATA     BYTE      P0

      00FF564AH   BLOCK     CODE     ---       LVL=0
      00FF564AH   LINE      CODE     ---       #20
      00FF5652H   LINE      CODE     ---       #22
      00FF5656H   LINE      CODE     ---       #24
      00FF5658H   LINE      CODE     ---       #25
      00FF565AH   LINE      CODE     ---       #28
      00FF5668H   LINE      CODE     ---       #29
      00FF567BH   LINE      CODE     ---       #30
      00FF5681H   LINE      CODE     ---       #31
      00FF5681H   LINE      CODE     ---       #32
      00FF5687H   LINE      CODE     ---       #33
      ---         BLOCKEND  ---      ---       LVL=0

      ---         MODULE    ---      ---       AI8051U_Timer_Isr
      00FF3837H   PUBLIC    CODE     ---       Timer0_ISR_Handler
      00FF00A6H   PUBLIC    CODE     ---       Timer1_ISR_Handler
      00FF0026H   PUBLIC    CODE     ---       Timer2_ISR_Handler
      00FF0027H   PUBLIC    CODE     ---       Timer3_ISR_Handler
      00FF0028H   PUBLIC    CODE     ---       Timer4_ISR_Handler
      00FF01EEH   PUBLIC    CODE     ---       Timer11_ISR_Handler
      00010612H   PUBLIC    XDATA    INT       ben_panduan
      00010614H   PUBLIC    XDATA    BYTE      times_count
      00010615H   PUBLIC    XDATA    INT       last_M
      000000D0H   SFRSYM    DATA     BYTE      PSW
      0000009DH   SFRSYM    DATA     BYTE      IRCBAND
      00000097H   SFRSYM    DATA     BYTE      AUXR2
      000000EFH   SFRSYM    DATA     BYTE      AUXINTIF
      000000FDH   SFRSYM    DATA     BYTE      S4CON
      000000ACH   SFRSYM    DATA     BYTE      S3CON
      0000009AH   SFRSYM    DATA     BYTE      S2CON
      000000B7H   SFRSYM    DATA     BYTE      IPH
      000000CDH   SFRSYM    DATA     BYTE      SPSTAT
      000000DDH   SFRSYM    DATA     BYTE      T4T3M
      000000C1H   SFRSYM    DATA     BYTE      WDT_CONTR
      000000DFH   SFRSYM    DATA     BYTE      IP3
      000000F4H   SFRSYM    DATA     BYTE      USBCON
      000000B5H   SFRSYM    DATA     BYTE      IP2
      000000FFH   SFRSYM    DATA     BYTE      RSTCFG
      000000C7H   SFRSYM    DATA     BYTE      IAP_CONTR
      000000F9H   SFRSYM    DATA     BYTE      LINICR
      0000008EH   SFRSYM    DATA     BYTE      AUXR
      000000AFH   SFRSYM    DATA     BYTE      IE2
      00000088H   SFRSYM    DATA     BYTE      TCON
      00000089H   SFRSYM    DATA     BYTE      TMOD
      00000098H   SFRSYM    DATA     BYTE      SCON
      000000F1H   SFRSYM    DATA     BYTE      CANICR
      00000087H   SFRSYM    DATA     BYTE      PCON
      000000BCH   SFRSYM    DATA     BYTE      ADC_CONTR
      000000D1H   SFRSYM    DATA     BYTE      PSW1
      000000E7H   SFRSYM    DATA     BYTE      CMPCR2
      000000E6H   SFRSYM    DATA     BYTE      CMPCR1
L251 LINKER/LOCATER V4.66.93.0                                                        03/28/2026  21:02:40  PAGE 79


      000000DEH   SFRSYM    DATA     BYTE      ADCCFG
      000000B8H   SFRSYM    DATA     BYTE      IP
      0000008FH   SFRSYM    DATA     BYTE      INTCLKO
      000000EEH   SFRSYM    DATA     BYTE      IP3H
      000000B6H   SFRSYM    DATA     BYTE      IP2H
      000000BFH   SFRSYM    DATA     BYTE      P_SW4
      000000A8H   SFRSYM    DATA     BYTE      IE
      000000BBH   SFRSYM    DATA     BYTE      P_SW3
      000000BAH   SFRSYM    DATA     BYTE      P_SW2
      000000A2H   SFRSYM    DATA     BYTE      P_SW1
      000000CEH   SFRSYM    DATA     BYTE      SPCTL
      000000F8H   SFRSYM    DATA     BYTE      P7
      000000E8H   SFRSYM    DATA     BYTE      P6
      000000C8H   SFRSYM    DATA     BYTE      P5
      000000C0H   SFRSYM    DATA     BYTE      P4
      000000ABH   SFRSYM    DATA     BYTE      WKTCH
      000000B0H   SFRSYM    DATA     BYTE      P3
      000000A0H   SFRSYM    DATA     BYTE      P2
      00000090H   SFRSYM    DATA     BYTE      P1
      00000080H   SFRSYM    DATA     BYTE      P0

      00FF3837H   BLOCK     CODE     ---       LVL=0
      00FF3837H   LINE      CODE     ---       #18
      00FF384DH   LINE      CODE     ---       #36
      00FF386AH   LINE      CODE     ---       #37
      00FF3887H   LINE      CODE     ---       #38
      00FF38A4H   LINE      CODE     ---       #39
      00FF38C1H   LINE      CODE     ---       #42
      00FF3900H   LINE      CODE     ---       #43
      00FF393BH   LINE      CODE     ---       #44
      00FF396EH   LINE      CODE     ---       #45
      00FF39A7H   LINE      CODE     ---       #49
      00FF39B3H   LINE      CODE     ---       #50
      00FF39C9H   LINE      CODE     ---       #52
      00FF39EDH   LINE      CODE     ---       #53
      00FF39FDH   LINE      CODE     ---       #54
      00FF3A03H   LINE      CODE     ---       #55
      00FF3A13H   LINE      CODE     ---       #56
      00FF3A17H   LINE      CODE     ---       #57
      00FF3A19H   LINE      CODE     ---       #58
      00FF3A2BH   LINE      CODE     ---       #59
      00FF3A31H   LINE      CODE     ---       #61
      00FF3A43H   LINE      CODE     ---       #62
      00FF3A4FH   LINE      CODE     ---       #64
      00FF3A61H   LINE      CODE     ---       #65
      00FF3A69H   LINE      CODE     ---       #67
      00FF3A6BH   LINE      CODE     ---       #69
      00FF3A77H   LINE      CODE     ---       #70
      00FF3A7FH   LINE      CODE     ---       #72
      00FF3A7FH   LINE      CODE     ---       #86
      00FF3A8AH   LINE      CODE     ---       #87
      00FF3A9BH   LINE      CODE     ---       #88
      00FF3AA3H   LINE      CODE     ---       #89
      00FF3AACH   LINE      CODE     ---       #91
      ---         BLOCKEND  ---      ---       LVL=0

      00FF00A6H   BLOCK     CODE     ---       LVL=0
      00FF00A6H   LINE      CODE     ---       #100
      00FF00BAH   LINE      CODE     ---       #105
      00FF00BDH   LINE      CODE     ---       #106
      ---         BLOCKEND  ---      ---       LVL=0

      00FF0026H   BLOCK     CODE     ---       LVL=0
      00FF0026H   LINE      CODE     ---       #115
      00FF0026H   LINE      CODE     ---       #120
L251 LINKER/LOCATER V4.66.93.0                                                        03/28/2026  21:02:40  PAGE 80


      ---         BLOCKEND  ---      ---       LVL=0

      00FF0027H   BLOCK     CODE     ---       LVL=0
      00FF0027H   LINE      CODE     ---       #129
      00FF0027H   LINE      CODE     ---       #134
      ---         BLOCKEND  ---      ---       LVL=0

      00FF0028H   BLOCK     CODE     ---       LVL=0
      00FF0028H   LINE      CODE     ---       #143
      00FF0028H   LINE      CODE     ---       #147
      ---         BLOCKEND  ---      ---       LVL=0

      00FF01EEH   BLOCK     CODE     ---       LVL=0
      00FF01EEH   LINE      CODE     ---       #157
      00FF0202H   LINE      CODE     ---       #162
      00FF0205H   LINE      CODE     ---       #164
      ---         BLOCKEND  ---      ---       LVL=0

      ---         MODULE    ---      ---       AI8051U_UART_Isr
      00FF5200H   PUBLIC    CODE     ---       UART1_ISR_Handler
      00FF4B2AH   PUBLIC    CODE     ---       UART3_ISR_Handler
      00FF4ECAH   PUBLIC    CODE     ---       UART4_ISR_Handler
      000103F8H   PUBLIC    XDATA    BYTE      num3
      000103F9H   PUBLIC    XDATA    BYTE      GPS_buf
      000103FAH   PUBLIC    XDATA    BYTE      sbuff
      000103FBH   PUBLIC    XDATA    ---       GPS_ReadBuff
      00000022H.3 PUBLIC    BIT      BIT       B_ULinRX1_Flag
      00000022H.4 PUBLIC    BIT      BIT       B_ULinRX2_Flag
      000000D0H   SFRSYM    DATA     BYTE      PSW
      0000009DH   SFRSYM    DATA     BYTE      IRCBAND
      00000097H   SFRSYM    DATA     BYTE      AUXR2
      000000EFH   SFRSYM    DATA     BYTE      AUXINTIF
      000000FDH   SFRSYM    DATA     BYTE      S4CON
      000000ACH   SFRSYM    DATA     BYTE      S3CON
      0000009AH   SFRSYM    DATA     BYTE      S2CON
      000000FEH   SFRSYM    DATA     BYTE      S4BUF
      000000ADH   SFRSYM    DATA     BYTE      S3BUF
      000000B7H   SFRSYM    DATA     BYTE      IPH
      000000CDH   SFRSYM    DATA     BYTE      SPSTAT
      000000DDH   SFRSYM    DATA     BYTE      T4T3M
      000000C1H   SFRSYM    DATA     BYTE      WDT_CONTR
      000000DFH   SFRSYM    DATA     BYTE      IP3
      000000F4H   SFRSYM    DATA     BYTE      USBCON
      000000B5H   SFRSYM    DATA     BYTE      IP2
      000000FFH   SFRSYM    DATA     BYTE      RSTCFG
      000000C7H   SFRSYM    DATA     BYTE      IAP_CONTR
      000000F9H   SFRSYM    DATA     BYTE      LINICR
      0000008EH   SFRSYM    DATA     BYTE      AUXR
      000000AFH   SFRSYM    DATA     BYTE      IE2
      00000088H   SFRSYM    DATA     BYTE      TCON
      00000089H   SFRSYM    DATA     BYTE      TMOD
      00000098H   SFRSYM    DATA     BYTE      SCON
      000000F1H   SFRSYM    DATA     BYTE      CANICR
      00000087H   SFRSYM    DATA     BYTE      PCON
      00000099H   SFRSYM    DATA     BYTE      SBUF
      000000BCH   SFRSYM    DATA     BYTE      ADC_CONTR
      000000D1H   SFRSYM    DATA     BYTE      PSW1
      000000E7H   SFRSYM    DATA     BYTE      CMPCR2
      000000E6H   SFRSYM    DATA     BYTE      CMPCR1
      000000FDH.1 SFRSYM    DATA     BIT       S4TI
      000000ACH.1 SFRSYM    DATA     BIT       S3TI
      000000FDH.0 SFRSYM    DATA     BIT       S4RI
      000000ACH.0 SFRSYM    DATA     BIT       S3RI
      00000098H.1 SFRSYM    DATA     BIT       TI
      00000098H.0 SFRSYM    DATA     BIT       RI
L251 LINKER/LOCATER V4.66.93.0                                                        03/28/2026  21:02:40  PAGE 81


      000000DEH   SFRSYM    DATA     BYTE      ADCCFG
      000000B8H   SFRSYM    DATA     BYTE      IP
      0000008FH   SFRSYM    DATA     BYTE      INTCLKO
      000000EEH   SFRSYM    DATA     BYTE      IP3H
      000000B6H   SFRSYM    DATA     BYTE      IP2H
      000000BFH   SFRSYM    DATA     BYTE      P_SW4
      000000A8H   SFRSYM    DATA     BYTE      IE
      000000BBH   SFRSYM    DATA     BYTE      P_SW3
      000000BAH   SFRSYM    DATA     BYTE      P_SW2
      000000A2H   SFRSYM    DATA     BYTE      P_SW1
      000000CEH   SFRSYM    DATA     BYTE      SPCTL
      000000F8H   SFRSYM    DATA     BYTE      P7
      000000E8H   SFRSYM    DATA     BYTE      P6
      000000C8H   SFRSYM    DATA     BYTE      P5
      000000C0H   SFRSYM    DATA     BYTE      P4
      000000ABH   SFRSYM    DATA     BYTE      WKTCH
      000000B0H   SFRSYM    DATA     BYTE      P3
      000000A0H   SFRSYM    DATA     BYTE      P2
      00000090H   SFRSYM    DATA     BYTE      P1
      00000080H   SFRSYM    DATA     BYTE      P0

      00FF5200H   BLOCK     CODE     ---       LVL=0
      00FF5208H   BLOCK     CODE     NEAR LAB  LVL=1
      R11         REGSYM    ---      BYTE      Status
      ---         BLOCKEND  ---      ---       LVL=1
      00FF5200H   LINE      CODE     ---       #18
      00FF5208H   LINE      CODE     ---       #19
      00FF5208H   LINE      CODE     ---       #22
      00FF520BH   LINE      CODE     ---       #24
      00FF520DH   LINE      CODE     ---       #27
      00FF5218H   LINE      CODE     ---       #28
      00FF521BH   LINE      CODE     ---       #30
      00FF521DH   LINE      CODE     ---       #31
      00FF521DH   LINE      CODE     ---       #33
      00FF5221H   LINE      CODE     ---       #35
      00FF5226H   LINE      CODE     ---       #36
      00FF5226H   LINE      CODE     ---       #37
      00FF522EH   LINE      CODE     ---       #40
      00FF523CH   LINE      CODE     ---       #41
      00FF524FH   LINE      CODE     ---       #42
      00FF5255H   LINE      CODE     ---       #43
      00FF5255H   LINE      CODE     ---       #45
      00FF5258H   LINE      CODE     ---       #47
      00FF525AH   LINE      CODE     ---       #57
      00FF525FH   LINE      CODE     ---       #59
      ---         BLOCKEND  ---      ---       LVL=0

      00FF4B2AH   BLOCK     CODE     ---       LVL=0
      00FF4B2AH   LINE      CODE     ---       #129
      00FF4B3EH   LINE      CODE     ---       #131
      00FF4B45H   LINE      CODE     ---       #133
      00FF4B48H   LINE      CODE     ---       #135
      00FF4B56H   LINE      CODE     ---       #138
      00FF4B5CH   LINE      CODE     ---       #139
      00FF4B63H   LINE      CODE     ---       #141
      00FF4B74H   LINE      CODE     ---       #143
      00FF4B81H   LINE      CODE     ---       #144
      00FF4B88H   LINE      CODE     ---       #145
      00FF4B8AH   LINE      CODE     ---       #146
      00FF4B8EH   LINE      CODE     ---       #149
      00FF4B9FH   LINE      CODE     ---       #150
      00FF4BA6H   LINE      CODE     ---       #151
      00FF4BB1H   LINE      CODE     ---       #153
      00FF4BB6H   LINE      CODE     ---       #155
      00FF4BC8H   LINE      CODE     ---       #157
L251 LINKER/LOCATER V4.66.93.0                                                        03/28/2026  21:02:40  PAGE 82


      00FF4BCBH   LINE      CODE     ---       #159
      00FF4BCBH   LINE      CODE     ---       #160
      00FF4BD0H   LINE      CODE     ---       #161
      00FF4BD0H   LINE      CODE     ---       #164
      00FF4BD0H   LINE      CODE     ---       #166
      00FF4BD6H   LINE      CODE     ---       #167
      00FF4BD6H   LINE      CODE     ---       #169
      00FF4BDAH   LINE      CODE     ---       #171
      00FF4BDDH   LINE      CODE     ---       #181
      00FF4BE2H   LINE      CODE     ---       #183
      ---         BLOCKEND  ---      ---       LVL=0

      00FF4ECAH   BLOCK     CODE     ---       LVL=0
      00FF4EE4H   BLOCK     CODE     NEAR LAB  LVL=1
      0001047BH   SYMBOL    XDATA    BYTE      num1
      ---         BLOCKEND  ---      ---       LVL=1
      00FF4ECAH   LINE      CODE     ---       #199
      00FF4EE0H   LINE      CODE     ---       #201
      00FF4EE4H   LINE      CODE     ---       #202
      00FF4EE4H   LINE      CODE     ---       #204
      00FF4EE7H   LINE      CODE     ---       #206
      00FF4EF5H   LINE      CODE     ---       #211
      00FF4EFBH   LINE      CODE     ---       #212
      00FF4F0BH   LINE      CODE     ---       #214
      00FF4F1EH   LINE      CODE     ---       #215
      00FF4F24H   LINE      CODE     ---       #216
      00FF4F29H   LINE      CODE     ---       #218
      00FF4F2BH   LINE      CODE     ---       #222
      00FF4F44H   LINE      CODE     ---       #223
      00FF4F44H   LINE      CODE     ---       #226
      00FF4F4AH   LINE      CODE     ---       #227
      00FF4F4AH   LINE      CODE     ---       #229
      00FF4F4EH   LINE      CODE     ---       #231
      00FF4F51H   LINE      CODE     ---       #241
      00FF4F56H   LINE      CODE     ---       #243
      ---         BLOCKEND  ---      ---       LVL=0

      ---         MODULE    ---      ---       AI8051U_ADC
      00FF53EEH   PUBLIC    CODE     ---       ADC_Inilize
      00FF5BC5H   PUBLIC    CODE     ---       ADC_PowerControl
      00FF538FH   PUBLIC    CODE     ---       Get_ADCResult
      000000D0H   SFRSYM    DATA     BYTE      PSW
      0000009DH   SFRSYM    DATA     BYTE      IRCBAND
      00000097H   SFRSYM    DATA     BYTE      AUXR2
      000000EFH   SFRSYM    DATA     BYTE      AUXINTIF
      000000FDH   SFRSYM    DATA     BYTE      S4CON
      000000ACH   SFRSYM    DATA     BYTE      S3CON
      0000009AH   SFRSYM    DATA     BYTE      S2CON
      000000B7H   SFRSYM    DATA     BYTE      IPH
      000000CDH   SFRSYM    DATA     BYTE      SPSTAT
      000000BEH   SFRSYM    DATA     BYTE      ADC_RESL
      000000DDH   SFRSYM    DATA     BYTE      T4T3M
      000000C1H   SFRSYM    DATA     BYTE      WDT_CONTR
      000000DEH.5 SFRSYM    DATA     BIT       RESFMT
      000000DFH   SFRSYM    DATA     BYTE      IP3
      000000F4H   SFRSYM    DATA     BYTE      USBCON
      000000B5H   SFRSYM    DATA     BYTE      IP2
      000000FFH   SFRSYM    DATA     BYTE      RSTCFG
      000000BCH.5 SFRSYM    DATA     BIT       ADC_FLAG
      000000C7H   SFRSYM    DATA     BYTE      IAP_CONTR
      000000F9H   SFRSYM    DATA     BYTE      LINICR
      0000008EH   SFRSYM    DATA     BYTE      AUXR
      000000AFH   SFRSYM    DATA     BYTE      IE2
      000000BCH.6 SFRSYM    DATA     BIT       ADC_START
      000000BCH.7 SFRSYM    DATA     BIT       ADC_POWER
L251 LINKER/LOCATER V4.66.93.0                                                        03/28/2026  21:02:40  PAGE 83


      00000088H   SFRSYM    DATA     BYTE      TCON
      00000089H   SFRSYM    DATA     BYTE      TMOD
      00000098H   SFRSYM    DATA     BYTE      SCON
      000000F1H   SFRSYM    DATA     BYTE      CANICR
      00000087H   SFRSYM    DATA     BYTE      PCON
      000000BCH   SFRSYM    DATA     BYTE      ADC_CONTR
      000000D1H   SFRSYM    DATA     BYTE      PSW1
      000000E7H   SFRSYM    DATA     BYTE      CMPCR2
      000000E6H   SFRSYM    DATA     BYTE      CMPCR1
      000000DEH   SFRSYM    DATA     BYTE      ADCCFG
      000000B8H   SFRSYM    DATA     BYTE      IP
      0000008FH   SFRSYM    DATA     BYTE      INTCLKO
      000000EEH   SFRSYM    DATA     BYTE      IP3H
      000000B6H   SFRSYM    DATA     BYTE      IP2H
      000000BDH   SFRSYM    DATA     BYTE      ADC_RES
      000000BFH   SFRSYM    DATA     BYTE      P_SW4
      000000A8H   SFRSYM    DATA     BYTE      IE
      000000BBH   SFRSYM    DATA     BYTE      P_SW3
      000000BAH   SFRSYM    DATA     BYTE      P_SW2
      000000A2H   SFRSYM    DATA     BYTE      P_SW1
      000000CEH   SFRSYM    DATA     BYTE      SPCTL
      000000F8H   SFRSYM    DATA     BYTE      P7
      000000E8H   SFRSYM    DATA     BYTE      P6
      000000C8H   SFRSYM    DATA     BYTE      P5
      000000C0H   SFRSYM    DATA     BYTE      P4
      000000ABH   SFRSYM    DATA     BYTE      WKTCH
      000000B0H   SFRSYM    DATA     BYTE      P3
      000000A0H   SFRSYM    DATA     BYTE      P2
      00000090H   SFRSYM    DATA     BYTE      P1
      00000080H   SFRSYM    DATA     BYTE      P0

      00FF53EEH   BLOCK     CODE     ---       LVL=0
      REG=7       REGSYM    ---      ---       ADCx
      00FF53EEH   LINE      CODE     ---       #13
      00FF53F0H   LINE      CODE     ---       #15
      00FF53FCH   LINE      CODE     ---       #16
      00FF540AH   LINE      CODE     ---       #18
      00FF5412H   LINE      CODE     ---       #19
      00FF5415H   LINE      CODE     ---       #20
      00FF541EH   LINE      CODE     ---       #21
      00FF5421H   LINE      CODE     ---       #22
      00FF542AH   LINE      CODE     ---       #23
      00FF542DH   LINE      CODE     ---       #25
      00FF5449H   LINE      CODE     ---       #26
      00FF544AH   LINE      CODE     ---       #27
      ---         BLOCKEND  ---      ---       LVL=0

      00FF5BC5H   BLOCK     CODE     ---       LVL=0
      R7          REGSYM    ---      BYTE      pwr
      00FF5BC5H   LINE      CODE     ---       #36
      00FF5BC7H   LINE      CODE     ---       #38
      00FF5BCBH   LINE      CODE     ---       #39
      00FF5BCFH   LINE      CODE     ---       #41
      00FF5BD2H   LINE      CODE     ---       #42
      ---         BLOCKEND  ---      ---       LVL=0

      00FF538FH   BLOCK     CODE     ---       LVL=0
      R11         REGSYM    ---      BYTE      channel
      WR8         REGSYM    ---      WORD      adc
      R7          REGSYM    ---      BYTE      i
      00FF538FH   LINE      CODE     ---       #51
      00FF538FH   LINE      CODE     ---       #52
      00FF538FH   LINE      CODE     ---       #56
      00FF5394H   LINE      CODE     ---       #57
      00FF5396H   LINE      CODE     ---       #58
L251 LINKER/LOCATER V4.66.93.0                                                        03/28/2026  21:02:40  PAGE 84


      00FF5399H   LINE      CODE     ---       #59
      00FF539CH   LINE      CODE     ---       #61
      00FF53A6H   LINE      CODE     ---       #62
      00FF53A9H   LINE      CODE     ---       #63
      00FF53B3H   LINE      CODE     ---       #65
      00FF53B6H   LINE      CODE     ---       #67
      00FF53BAH   LINE      CODE     ---       #69
      00FF53BDH   LINE      CODE     ---       #70
      00FF53C1H   LINE      CODE     ---       #72
      00FF53C9H   LINE      CODE     ---       #73
      00FF53CBH   LINE      CODE     ---       #76
      00FF53CFH   LINE      CODE     ---       #77
      00FF53E2H   LINE      CODE     ---       #78
      00FF53E2H   LINE      CODE     ---       #79
      00FF53E5H   LINE      CODE     ---       #80
      00FF53E9H   LINE      CODE     ---       #82
      00FF53EDH   LINE      CODE     ---       #83
      ---         BLOCKEND  ---      ---       LVL=0

      ---         MODULE    ---      ---       AI8051U_Clock
      000000D0H   SFRSYM    DATA     BYTE      PSW
      0000009DH   SFRSYM    DATA     BYTE      IRCBAND
      00000097H   SFRSYM    DATA     BYTE      AUXR2
      000000EFH   SFRSYM    DATA     BYTE      AUXINTIF
      000000FDH   SFRSYM    DATA     BYTE      S4CON
      000000ACH   SFRSYM    DATA     BYTE      S3CON
      0000009AH   SFRSYM    DATA     BYTE      S2CON
      000000B7H   SFRSYM    DATA     BYTE      IPH
      000000CDH   SFRSYM    DATA     BYTE      SPSTAT
      000000DDH   SFRSYM    DATA     BYTE      T4T3M
      000000C1H   SFRSYM    DATA     BYTE      WDT_CONTR
      000000DFH   SFRSYM    DATA     BYTE      IP3
      000000F4H   SFRSYM    DATA     BYTE      USBCON
      000000B5H   SFRSYM    DATA     BYTE      IP2
      000000FFH   SFRSYM    DATA     BYTE      RSTCFG
      000000DCH   SFRSYM    DATA     BYTE      USBCLK
      000000C7H   SFRSYM    DATA     BYTE      IAP_CONTR
      000000F9H   SFRSYM    DATA     BYTE      LINICR
      0000008EH   SFRSYM    DATA     BYTE      AUXR
      000000AFH   SFRSYM    DATA     BYTE      IE2
      00000088H   SFRSYM    DATA     BYTE      TCON
      00000089H   SFRSYM    DATA     BYTE      TMOD
      00000098H   SFRSYM    DATA     BYTE      SCON
      000000F1H   SFRSYM    DATA     BYTE      CANICR
      00000087H   SFRSYM    DATA     BYTE      PCON
      000000BCH   SFRSYM    DATA     BYTE      ADC_CONTR
      000000D1H   SFRSYM    DATA     BYTE      PSW1
      000000E7H   SFRSYM    DATA     BYTE      CMPCR2
      000000E6H   SFRSYM    DATA     BYTE      CMPCR1
      000000DEH   SFRSYM    DATA     BYTE      ADCCFG
      000000B8H   SFRSYM    DATA     BYTE      IP
      0000008FH   SFRSYM    DATA     BYTE      INTCLKO
      000000EEH   SFRSYM    DATA     BYTE      IP3H
      000000B6H   SFRSYM    DATA     BYTE      IP2H
      000000BFH   SFRSYM    DATA     BYTE      P_SW4
      000000A8H   SFRSYM    DATA     BYTE      IE
      000000BBH   SFRSYM    DATA     BYTE      P_SW3
      000000BAH   SFRSYM    DATA     BYTE      P_SW2
      000000A2H   SFRSYM    DATA     BYTE      P_SW1
      000000CEH   SFRSYM    DATA     BYTE      SPCTL
      000000F8H   SFRSYM    DATA     BYTE      P7
      000000E8H   SFRSYM    DATA     BYTE      P6
      000000C8H   SFRSYM    DATA     BYTE      P5
      000000C0H   SFRSYM    DATA     BYTE      P4
      000000ABH   SFRSYM    DATA     BYTE      WKTCH
L251 LINKER/LOCATER V4.66.93.0                                                        03/28/2026  21:02:40  PAGE 85


      000000B0H   SFRSYM    DATA     BYTE      P3
      000000A0H   SFRSYM    DATA     BYTE      P2
      00000090H   SFRSYM    DATA     BYTE      P1
      00000080H   SFRSYM    DATA     BYTE      P0
      R10         REGSYM    ---      BYTE      div
      R10         REGSYM    ---      BYTE      div
      R10         REGSYM    ---      BYTE      div
      R1          REGSYM    ---      BYTE      clksrc
      R2          REGSYM    ---      BYTE      pllsel
      R15         REGSYM    ---      BYTE      div

      ---         MODULE    ---      ---       AI8051U_Delay
      00FF5BD3H   PUBLIC    CODE     ---       I2C_Delay_2us
      00FF5B4DH   PUBLIC    CODE     ---       delay_ms
      00FF5B8EH   PUBLIC    CODE     ---       delay_us
      000000D0H   SFRSYM    DATA     BYTE      PSW
      0000009DH   SFRSYM    DATA     BYTE      IRCBAND
      00000097H   SFRSYM    DATA     BYTE      AUXR2
      000000EFH   SFRSYM    DATA     BYTE      AUXINTIF
      000000FDH   SFRSYM    DATA     BYTE      S4CON
      000000ACH   SFRSYM    DATA     BYTE      S3CON
      0000009AH   SFRSYM    DATA     BYTE      S2CON
      000000B7H   SFRSYM    DATA     BYTE      IPH
      000000CDH   SFRSYM    DATA     BYTE      SPSTAT
      000000DDH   SFRSYM    DATA     BYTE      T4T3M
      000000C1H   SFRSYM    DATA     BYTE      WDT_CONTR
      000000DFH   SFRSYM    DATA     BYTE      IP3
      000000F4H   SFRSYM    DATA     BYTE      USBCON
      000000B5H   SFRSYM    DATA     BYTE      IP2
      000000FFH   SFRSYM    DATA     BYTE      RSTCFG
      000000C7H   SFRSYM    DATA     BYTE      IAP_CONTR
      000000F9H   SFRSYM    DATA     BYTE      LINICR
      0000008EH   SFRSYM    DATA     BYTE      AUXR
      000000AFH   SFRSYM    DATA     BYTE      IE2
      00000088H   SFRSYM    DATA     BYTE      TCON
      00000089H   SFRSYM    DATA     BYTE      TMOD
      00000098H   SFRSYM    DATA     BYTE      SCON
      000000F1H   SFRSYM    DATA     BYTE      CANICR
      00000087H   SFRSYM    DATA     BYTE      PCON
      000000BCH   SFRSYM    DATA     BYTE      ADC_CONTR
      000000D1H   SFRSYM    DATA     BYTE      PSW1
      000000E7H   SFRSYM    DATA     BYTE      CMPCR2
      000000E6H   SFRSYM    DATA     BYTE      CMPCR1
      000000DEH   SFRSYM    DATA     BYTE      ADCCFG
      000000B8H   SFRSYM    DATA     BYTE      IP
      0000008FH   SFRSYM    DATA     BYTE      INTCLKO
      000000EEH   SFRSYM    DATA     BYTE      IP3H
      000000B6H   SFRSYM    DATA     BYTE      IP2H
      000000BFH   SFRSYM    DATA     BYTE      P_SW4
      000000A8H   SFRSYM    DATA     BYTE      IE
      000000BBH   SFRSYM    DATA     BYTE      P_SW3
      000000BAH   SFRSYM    DATA     BYTE      P_SW2
      000000A2H   SFRSYM    DATA     BYTE      P_SW1
      000000CEH   SFRSYM    DATA     BYTE      SPCTL
      000000F8H   SFRSYM    DATA     BYTE      P7
      000000E8H   SFRSYM    DATA     BYTE      P6
      000000C8H   SFRSYM    DATA     BYTE      P5
      000000C0H   SFRSYM    DATA     BYTE      P4
      000000ABH   SFRSYM    DATA     BYTE      WKTCH
      000000B0H   SFRSYM    DATA     BYTE      P3
      000000A0H   SFRSYM    DATA     BYTE      P2
      00000090H   SFRSYM    DATA     BYTE      P1
      00000080H   SFRSYM    DATA     BYTE      P0

      00FF5B4DH   BLOCK     CODE     ---       LVL=0
L251 LINKER/LOCATER V4.66.93.0                                                        03/28/2026  21:02:40  PAGE 86


      WR4         REGSYM    ---      WORD      ms
      00FF5B4FH   BLOCK     CODE     NEAR LAB  LVL=1
      WR6         REGSYM    ---      WORD      i
      ---         BLOCKEND  ---      ---       LVL=1
      00FF5B4DH   LINE      CODE     ---       #16
      00FF5B4FH   LINE      CODE     ---       #17
      00FF5B4FH   LINE      CODE     ---       #19
      00FF5B4FH   LINE      CODE     ---       #20
      00FF5B53H   LINE      CODE     ---       #21
      00FF5B5BH   LINE      CODE     ---       #22
      00FF5B63H   LINE      CODE     ---       #23
      ---         BLOCKEND  ---      ---       LVL=0

      00FF5B8EH   BLOCK     CODE     ---       LVL=0
      WR2         REGSYM    ---      WORD      us
      00FF5B90H   BLOCK     CODE     NEAR LAB  LVL=1
      DR4         REGSYM    ---      DWORD     i
      ---         BLOCKEND  ---      ---       LVL=1
      00FF5B8EH   LINE      CODE     ---       #34
      00FF5B90H   LINE      CODE     ---       #35
      00FF5B90H   LINE      CODE     ---       #37
      00FF5B90H   LINE      CODE     ---       #38
      00FF5B91H   LINE      CODE     ---       #39
      00FF5B95H   LINE      CODE     ---       #40
      00FF5B99H   LINE      CODE     ---       #41
      00FF5BA1H   LINE      CODE     ---       #42
      ---         BLOCKEND  ---      ---       LVL=0

      00FF5BD3H   BLOCK     CODE     ---       LVL=0
      R10         REGSYM    ---      BYTE      dly
      00FF5BD3H   LINE      CODE     ---       #52
      00FF5BD3H   LINE      CODE     ---       #53
      00FF5BD3H   LINE      CODE     ---       #55
      00FF5BD6H   LINE      CODE     ---       #56
      00FF5BDDH   LINE      CODE     ---       #57
      ---         BLOCKEND  ---      ---       LVL=0

      ---         MODULE    ---      ---       AI8051U_DMA
      000000D0H   SFRSYM    DATA     BYTE      PSW
      0000009DH   SFRSYM    DATA     BYTE      IRCBAND
      00000097H   SFRSYM    DATA     BYTE      AUXR2
      000000EFH   SFRSYM    DATA     BYTE      AUXINTIF
      000000FDH   SFRSYM    DATA     BYTE      S4CON
      000000ACH   SFRSYM    DATA     BYTE      S3CON
      0000009AH   SFRSYM    DATA     BYTE      S2CON
      000000B7H   SFRSYM    DATA     BYTE      IPH
      000000CDH   SFRSYM    DATA     BYTE      SPSTAT
      000000DDH   SFRSYM    DATA     BYTE      T4T3M
      000000C1H   SFRSYM    DATA     BYTE      WDT_CONTR
      000000DFH   SFRSYM    DATA     BYTE      IP3
      000000F4H   SFRSYM    DATA     BYTE      USBCON
      000000B5H   SFRSYM    DATA     BYTE      IP2
      000000FFH   SFRSYM    DATA     BYTE      RSTCFG
      000000C7H   SFRSYM    DATA     BYTE      IAP_CONTR
      000000F9H   SFRSYM    DATA     BYTE      LINICR
      0000008EH   SFRSYM    DATA     BYTE      AUXR
      000000AFH   SFRSYM    DATA     BYTE      IE2
      00000088H   SFRSYM    DATA     BYTE      TCON
      00000089H   SFRSYM    DATA     BYTE      TMOD
      00000098H   SFRSYM    DATA     BYTE      SCON
      000000F1H   SFRSYM    DATA     BYTE      CANICR
      00000087H   SFRSYM    DATA     BYTE      PCON
      000000BCH   SFRSYM    DATA     BYTE      ADC_CONTR
      000000D1H   SFRSYM    DATA     BYTE      PSW1
      000000E7H   SFRSYM    DATA     BYTE      CMPCR2
L251 LINKER/LOCATER V4.66.93.0                                                        03/28/2026  21:02:40  PAGE 87


      000000E6H   SFRSYM    DATA     BYTE      CMPCR1
      000000DEH   SFRSYM    DATA     BYTE      ADCCFG
      000000B8H   SFRSYM    DATA     BYTE      IP
      0000008FH   SFRSYM    DATA     BYTE      INTCLKO
      000000EEH   SFRSYM    DATA     BYTE      IP3H
      000000B6H   SFRSYM    DATA     BYTE      IP2H
      000000BFH   SFRSYM    DATA     BYTE      P_SW4
      000000A8H   SFRSYM    DATA     BYTE      IE
      000000BBH   SFRSYM    DATA     BYTE      P_SW3
      000000BAH   SFRSYM    DATA     BYTE      P_SW2
      000000A2H   SFRSYM    DATA     BYTE      P_SW1
      000000CEH   SFRSYM    DATA     BYTE      SPCTL
      000000F8H   SFRSYM    DATA     BYTE      P7
      000000E8H   SFRSYM    DATA     BYTE      P6
      000000C8H   SFRSYM    DATA     BYTE      P5
      000000C0H   SFRSYM    DATA     BYTE      P4
      000000ABH   SFRSYM    DATA     BYTE      WKTCH
      000000B0H   SFRSYM    DATA     BYTE      P3
      000000A0H   SFRSYM    DATA     BYTE      P2
      00000090H   SFRSYM    DATA     BYTE      P1
      00000080H   SFRSYM    DATA     BYTE      P0
      REG=7       REGSYM    ---      ---       DMA
      REG=7       REGSYM    ---      ---       DMA
      REG=7       REGSYM    ---      ---       DMA
      R10         REGSYM    ---      BYTE      UARTx
      REG=7       REGSYM    ---      ---       DMA
      REG=7       REGSYM    ---      ---       DMA
      REG=7       REGSYM    ---      ---       DMA

      ---         MODULE    ---      ---       AI8051U_EEPROM
      000000D0H   SFRSYM    DATA     BYTE      PSW
      0000009DH   SFRSYM    DATA     BYTE      IRCBAND
      000000D0H.5 SFRSYM    DATA     BIT       F0
      00000097H   SFRSYM    DATA     BYTE      AUXR2
      000000C6H   SFRSYM    DATA     BYTE      IAP_TRIG
      000000C7H.7 SFRSYM    DATA     BIT       IAPEN
      000000EFH   SFRSYM    DATA     BYTE      AUXINTIF
      000000FDH   SFRSYM    DATA     BYTE      S4CON
      000000ACH   SFRSYM    DATA     BYTE      S3CON
      0000009AH   SFRSYM    DATA     BYTE      S2CON
      000000B7H   SFRSYM    DATA     BYTE      IPH
      000000CDH   SFRSYM    DATA     BYTE      SPSTAT
      000000DDH   SFRSYM    DATA     BYTE      T4T3M
      000000C1H   SFRSYM    DATA     BYTE      WDT_CONTR
      000000C2H   SFRSYM    DATA     BYTE      IAP_DATA
      000000DFH   SFRSYM    DATA     BYTE      IP3
      000000F4H   SFRSYM    DATA     BYTE      USBCON
      000000B5H   SFRSYM    DATA     BYTE      IP2
      000000FFH   SFRSYM    DATA     BYTE      RSTCFG
      000000C7H   SFRSYM    DATA     BYTE      IAP_CONTR
      000000F9H   SFRSYM    DATA     BYTE      LINICR
      0000008EH   SFRSYM    DATA     BYTE      AUXR
      000000AFH   SFRSYM    DATA     BYTE      IE2
      00000088H   SFRSYM    DATA     BYTE      TCON
      00000089H   SFRSYM    DATA     BYTE      TMOD
      00000098H   SFRSYM    DATA     BYTE      SCON
      000000F5H   SFRSYM    DATA     BYTE      IAP_TPS
      000000F1H   SFRSYM    DATA     BYTE      CANICR
      00000087H   SFRSYM    DATA     BYTE      PCON
      000000BCH   SFRSYM    DATA     BYTE      ADC_CONTR
      000000D1H   SFRSYM    DATA     BYTE      PSW1
      000000E7H   SFRSYM    DATA     BYTE      CMPCR2
      000000E6H   SFRSYM    DATA     BYTE      CMPCR1
      000000C4H   SFRSYM    DATA     BYTE      IAP_ADDRL
      000000C3H   SFRSYM    DATA     BYTE      IAP_ADDRH
L251 LINKER/LOCATER V4.66.93.0                                                        03/28/2026  21:02:40  PAGE 88


      000000F6H   SFRSYM    DATA     BYTE      IAP_ADDRE
      000000DEH   SFRSYM    DATA     BYTE      ADCCFG
      000000B8H   SFRSYM    DATA     BYTE      IP
      0000008FH   SFRSYM    DATA     BYTE      INTCLKO
      000000EEH   SFRSYM    DATA     BYTE      IP3H
      000000B6H   SFRSYM    DATA     BYTE      IP2H
      000000C5H   SFRSYM    DATA     BYTE      IAP_CMD
      000000BFH   SFRSYM    DATA     BYTE      P_SW4
      000000A8H   SFRSYM    DATA     BYTE      IE
      000000BBH   SFRSYM    DATA     BYTE      P_SW3
      000000BAH   SFRSYM    DATA     BYTE      P_SW2
      000000A2H   SFRSYM    DATA     BYTE      P_SW1
      000000CEH   SFRSYM    DATA     BYTE      SPCTL
      000000F8H   SFRSYM    DATA     BYTE      P7
      000000A8H.7 SFRSYM    DATA     BIT       EA
      000000E8H   SFRSYM    DATA     BYTE      P6
      000000C8H   SFRSYM    DATA     BYTE      P5
      000000C0H   SFRSYM    DATA     BYTE      P4
      000000ABH   SFRSYM    DATA     BYTE      WKTCH
      000000B0H   SFRSYM    DATA     BYTE      P3
      000000A0H   SFRSYM    DATA     BYTE      P2
      00000090H   SFRSYM    DATA     BYTE      P1
      00000080H   SFRSYM    DATA     BYTE      P0
      DR12        REGSYM    ---      DWORD     EE_address
      DR4         REGSYM    ---      DWORD     EE_address
      DR12        REGSYM    ---      DWORD     EE_address

      ---         MODULE    ---      ---       AI8051U_Exti
      000000D0H   SFRSYM    DATA     BYTE      PSW
      0000009DH   SFRSYM    DATA     BYTE      IRCBAND
      00000097H   SFRSYM    DATA     BYTE      AUXR2
      000000EFH   SFRSYM    DATA     BYTE      AUXINTIF
      000000FDH   SFRSYM    DATA     BYTE      S4CON
      000000ACH   SFRSYM    DATA     BYTE      S3CON
      0000009AH   SFRSYM    DATA     BYTE      S2CON
      000000B7H   SFRSYM    DATA     BYTE      IPH
      000000CDH   SFRSYM    DATA     BYTE      SPSTAT
      000000DDH   SFRSYM    DATA     BYTE      T4T3M
      000000C1H   SFRSYM    DATA     BYTE      WDT_CONTR
      0000008FH.6 SFRSYM    DATA     BIT       EX4
      0000008FH.5 SFRSYM    DATA     BIT       EX3
      0000008FH.4 SFRSYM    DATA     BIT       EX2
      00000088H.2 SFRSYM    DATA     BIT       IT1
      00000088H.0 SFRSYM    DATA     BIT       IT0
      000000DFH   SFRSYM    DATA     BYTE      IP3
      000000F4H   SFRSYM    DATA     BYTE      USBCON
      000000B5H   SFRSYM    DATA     BYTE      IP2
      000000FFH   SFRSYM    DATA     BYTE      RSTCFG
      000000C7H   SFRSYM    DATA     BYTE      IAP_CONTR
      000000F9H   SFRSYM    DATA     BYTE      LINICR
      0000008EH   SFRSYM    DATA     BYTE      AUXR
      000000AFH   SFRSYM    DATA     BYTE      IE2
      00000088H.3 SFRSYM    DATA     BIT       IE1
      00000088H.1 SFRSYM    DATA     BIT       IE0
      00000088H   SFRSYM    DATA     BYTE      TCON
      00000089H   SFRSYM    DATA     BYTE      TMOD
      00000098H   SFRSYM    DATA     BYTE      SCON
      000000F1H   SFRSYM    DATA     BYTE      CANICR
      00000087H   SFRSYM    DATA     BYTE      PCON
      000000BCH   SFRSYM    DATA     BYTE      ADC_CONTR
      000000EFH.6 SFRSYM    DATA     BIT       INT4IF
      000000EFH.5 SFRSYM    DATA     BIT       INT3IF
      000000EFH.4 SFRSYM    DATA     BIT       INT2IF
      000000D1H   SFRSYM    DATA     BYTE      PSW1
      000000E7H   SFRSYM    DATA     BYTE      CMPCR2
L251 LINKER/LOCATER V4.66.93.0                                                        03/28/2026  21:02:40  PAGE 89


      000000E6H   SFRSYM    DATA     BYTE      CMPCR1
      000000DEH   SFRSYM    DATA     BYTE      ADCCFG
      000000B8H   SFRSYM    DATA     BYTE      IP
      0000008FH   SFRSYM    DATA     BYTE      INTCLKO
      000000EEH   SFRSYM    DATA     BYTE      IP3H
      000000B6H   SFRSYM    DATA     BYTE      IP2H
      000000BFH   SFRSYM    DATA     BYTE      P_SW4
      000000A8H   SFRSYM    DATA     BYTE      IE
      000000BBH   SFRSYM    DATA     BYTE      P_SW3
      000000BAH   SFRSYM    DATA     BYTE      P_SW2
      000000A2H   SFRSYM    DATA     BYTE      P_SW1
      000000CEH   SFRSYM    DATA     BYTE      SPCTL
      000000F8H   SFRSYM    DATA     BYTE      P7
      000000E8H   SFRSYM    DATA     BYTE      P6
      000000C8H   SFRSYM    DATA     BYTE      P5
      000000C0H   SFRSYM    DATA     BYTE      P4
      000000ABH   SFRSYM    DATA     BYTE      WKTCH
      000000B0H   SFRSYM    DATA     BYTE      P3
      000000A0H   SFRSYM    DATA     BYTE      P2
      00000090H   SFRSYM    DATA     BYTE      P1
      00000080H   SFRSYM    DATA     BYTE      P0
      R7          REGSYM    ---      BYTE      EXT
      REG=0       REGSYM    ---      ---       INTx

      ---         MODULE    ---      ---       AI8051U_GPIO
      00FF3AC3H   PUBLIC    CODE     ---       GPIO_Inilize
      00000094H   SFRSYM    DATA     BYTE      P0M0
      000000D0H   SFRSYM    DATA     BYTE      PSW
      0000009DH   SFRSYM    DATA     BYTE      IRCBAND
      00000097H   SFRSYM    DATA     BYTE      AUXR2
      000000EFH   SFRSYM    DATA     BYTE      AUXINTIF
      000000FDH   SFRSYM    DATA     BYTE      S4CON
      000000ACH   SFRSYM    DATA     BYTE      S3CON
      0000009AH   SFRSYM    DATA     BYTE      S2CON
      000000B7H   SFRSYM    DATA     BYTE      IPH
      000000CDH   SFRSYM    DATA     BYTE      SPSTAT
      000000DDH   SFRSYM    DATA     BYTE      T4T3M
      000000C1H   SFRSYM    DATA     BYTE      WDT_CONTR
      000000DFH   SFRSYM    DATA     BYTE      IP3
      000000F4H   SFRSYM    DATA     BYTE      USBCON
      000000B5H   SFRSYM    DATA     BYTE      IP2
      000000FFH   SFRSYM    DATA     BYTE      RSTCFG
      000000C7H   SFRSYM    DATA     BYTE      IAP_CONTR
      000000F9H   SFRSYM    DATA     BYTE      LINICR
      0000008EH   SFRSYM    DATA     BYTE      AUXR
      000000AFH   SFRSYM    DATA     BYTE      IE2
      00000088H   SFRSYM    DATA     BYTE      TCON
      00000089H   SFRSYM    DATA     BYTE      TMOD
      00000098H   SFRSYM    DATA     BYTE      SCON
      000000F1H   SFRSYM    DATA     BYTE      CANICR
      00000087H   SFRSYM    DATA     BYTE      PCON
      000000BCH   SFRSYM    DATA     BYTE      ADC_CONTR
      000000D1H   SFRSYM    DATA     BYTE      PSW1
      000000E7H   SFRSYM    DATA     BYTE      CMPCR2
      000000E6H   SFRSYM    DATA     BYTE      CMPCR1
      000000DEH   SFRSYM    DATA     BYTE      ADCCFG
      000000B8H   SFRSYM    DATA     BYTE      IP
      0000008FH   SFRSYM    DATA     BYTE      INTCLKO
      000000EEH   SFRSYM    DATA     BYTE      IP3H
      000000B6H   SFRSYM    DATA     BYTE      IP2H
      000000BFH   SFRSYM    DATA     BYTE      P_SW4
      000000A8H   SFRSYM    DATA     BYTE      IE
      000000BBH   SFRSYM    DATA     BYTE      P_SW3
      000000BAH   SFRSYM    DATA     BYTE      P_SW2
      000000A2H   SFRSYM    DATA     BYTE      P_SW1
L251 LINKER/LOCATER V4.66.93.0                                                        03/28/2026  21:02:40  PAGE 90


      000000CEH   SFRSYM    DATA     BYTE      SPCTL
      000000F8H   SFRSYM    DATA     BYTE      P7
      000000E1H   SFRSYM    DATA     BYTE      P7M1
      000000E8H   SFRSYM    DATA     BYTE      P6
      000000C8H   SFRSYM    DATA     BYTE      P5
      000000CBH   SFRSYM    DATA     BYTE      P6M1
      000000E2H   SFRSYM    DATA     BYTE      P7M0
      000000C0H   SFRSYM    DATA     BYTE      P4
      000000C9H   SFRSYM    DATA     BYTE      P5M1
      000000CCH   SFRSYM    DATA     BYTE      P6M0
      000000ABH   SFRSYM    DATA     BYTE      WKTCH
      000000B0H   SFRSYM    DATA     BYTE      P3
      000000B3H   SFRSYM    DATA     BYTE      P4M1
      000000CAH   SFRSYM    DATA     BYTE      P5M0
      000000A0H   SFRSYM    DATA     BYTE      P2
      000000B1H   SFRSYM    DATA     BYTE      P3M1
      000000B4H   SFRSYM    DATA     BYTE      P4M0
      00000090H   SFRSYM    DATA     BYTE      P1
      00000095H   SFRSYM    DATA     BYTE      P2M1
      000000B2H   SFRSYM    DATA     BYTE      P3M0
      00000080H   SFRSYM    DATA     BYTE      P0
      00000091H   SFRSYM    DATA     BYTE      P1M1
      00000096H   SFRSYM    DATA     BYTE      P2M0
      00000092H   SFRSYM    DATA     BYTE      P1M0
      00000093H   SFRSYM    DATA     BYTE      P0M1

      00FF3AC3H   BLOCK     CODE     ---       LVL=0
      R10         REGSYM    ---      BYTE      GPIO
      REG=0       REGSYM    ---      ---       GPIOx
      00FF3AC3H   LINE      CODE     ---       #14
      00FF3AC5H   LINE      CODE     ---       #16
      00FF3ACDH   LINE      CODE     ---       #17
      00FF3AD8H   LINE      CODE     ---       #18
      00FF3ADCH   LINE      CODE     ---       #20
      00FF3AEFH   LINE      CODE     ---       #21
      00FF3AFFH   LINE      CODE     ---       #22
      00FF3B0DH   LINE      CODE     ---       #23
      00FF3B1FH   LINE      CODE     ---       #24
      00FF3B1FH   LINE      CODE     ---       #25
      00FF3B24H   LINE      CODE     ---       #27
      00FF3B37H   LINE      CODE     ---       #28
      00FF3B47H   LINE      CODE     ---       #29
      00FF3B55H   LINE      CODE     ---       #30
      00FF3B67H   LINE      CODE     ---       #31
      00FF3B67H   LINE      CODE     ---       #32
      00FF3B6CH   LINE      CODE     ---       #34
      00FF3B7FH   LINE      CODE     ---       #35
      00FF3B8FH   LINE      CODE     ---       #36
      00FF3B9DH   LINE      CODE     ---       #37
      00FF3BAFH   LINE      CODE     ---       #38
      00FF3BAFH   LINE      CODE     ---       #39
      00FF3BB4H   LINE      CODE     ---       #41
      00FF3BC7H   LINE      CODE     ---       #42
      00FF3BD7H   LINE      CODE     ---       #43
      00FF3BE5H   LINE      CODE     ---       #44
      00FF3BF7H   LINE      CODE     ---       #45
      00FF3BF7H   LINE      CODE     ---       #46
      00FF3BFCH   LINE      CODE     ---       #48
      00FF3C0FH   LINE      CODE     ---       #49
      00FF3C1FH   LINE      CODE     ---       #50
      00FF3C2DH   LINE      CODE     ---       #51
      00FF3C3FH   LINE      CODE     ---       #52
      00FF3C3FH   LINE      CODE     ---       #53
      00FF3C44H   LINE      CODE     ---       #55
      00FF3C57H   LINE      CODE     ---       #56
L251 LINKER/LOCATER V4.66.93.0                                                        03/28/2026  21:02:40  PAGE 91


      00FF3C67H   LINE      CODE     ---       #57
      00FF3C75H   LINE      CODE     ---       #58
      00FF3C87H   LINE      CODE     ---       #59
      00FF3C87H   LINE      CODE     ---       #60
      00FF3C8CH   LINE      CODE     ---       #62
      00FF3C9FH   LINE      CODE     ---       #63
      00FF3CAFH   LINE      CODE     ---       #64
      00FF3CBDH   LINE      CODE     ---       #65
      00FF3CCFH   LINE      CODE     ---       #66
      00FF3CCFH   LINE      CODE     ---       #67
      00FF3CD4H   LINE      CODE     ---       #69
      00FF3CE7H   LINE      CODE     ---       #70
      00FF3CF7H   LINE      CODE     ---       #71
      00FF3D05H   LINE      CODE     ---       #72
      00FF3D17H   LINE      CODE     ---       #73
      00FF3D17H   LINE      CODE     ---       #74
      00FF3D18H   LINE      CODE     ---       #75
      ---         BLOCKEND  ---      ---       LVL=0

      ---         MODULE    ---      ---       AI8051U_NVIC
      00FF5575H   PUBLIC    CODE     ---       NVIC_Timer0_Init
      00FF55BCH   PUBLIC    CODE     ---       NVIC_Timer1_Init
      00FF5B01H   PUBLIC    CODE     ---       NVIC_Timer3_Init
      00FF5B1BH   PUBLIC    CODE     ---       NVIC_Timer4_Init
      00FF5603H   PUBLIC    CODE     ---       NVIC_ADC_Init
      00FF57DFH   PUBLIC    CODE     ---       NVIC_Timer11_Init
      00FF4F6DH   PUBLIC    CODE     ---       NVIC_PWM_Init
      000000D0H   SFRSYM    DATA     BYTE      PSW
      000000B6H.5 SFRSYM    DATA     BIT       PCMPH
      0000009DH   SFRSYM    DATA     BYTE      IRCBAND
      00000097H   SFRSYM    DATA     BYTE      AUXR2
      000000B7H.4 SFRSYM    DATA     BIT       PSH
      000000EFH   SFRSYM    DATA     BYTE      AUXINTIF
      000000FDH   SFRSYM    DATA     BYTE      S4CON
      000000ACH   SFRSYM    DATA     BYTE      S3CON
      0000009AH   SFRSYM    DATA     BYTE      S2CON
      000000B7H   SFRSYM    DATA     BYTE      IPH
      000000B7H.5 SFRSYM    DATA     BIT       PADCH
      000000CDH   SFRSYM    DATA     BYTE      SPSTAT
      000000E6H.5 SFRSYM    DATA     BIT       PIE
      000000DDH   SFRSYM    DATA     BYTE      T4T3M
      000000E6H.4 SFRSYM    DATA     BIT       NIE
      000000B8H.2 SFRSYM    DATA     BIT       PX1
      000000B8H.0 SFRSYM    DATA     BIT       PX0
      000000C1H   SFRSYM    DATA     BYTE      WDT_CONTR
      000000DFH.1 SFRSYM    DATA     BIT       PS4
      000000DFH.0 SFRSYM    DATA     BIT       PS3
      000000B5H.0 SFRSYM    DATA     BIT       PS2
      000000B8H.3 SFRSYM    DATA     BIT       PT1
      000000B8H.1 SFRSYM    DATA     BIT       PT0
      0000008FH.6 SFRSYM    DATA     BIT       EX4
      0000008FH.5 SFRSYM    DATA     BIT       EX3
      000000B6H.3 SFRSYM    DATA     BIT       PPWMBH
      0000008FH.4 SFRSYM    DATA     BIT       EX2
      000000B6H.2 SFRSYM    DATA     BIT       PPWMAH
      000000A8H.2 SFRSYM    DATA     BIT       EX1
      000000A8H.0 SFRSYM    DATA     BIT       EX0
      000000AFH.6 SFRSYM    DATA     BIT       ET4
      000000AFH.5 SFRSYM    DATA     BIT       ET3
      000000AFH.4 SFRSYM    DATA     BIT       ES4
      000000DFH   SFRSYM    DATA     BYTE      IP3
      000000F4H   SFRSYM    DATA     BYTE      USBCON
      000000AFH.3 SFRSYM    DATA     BIT       ES3
      000000AFH.2 SFRSYM    DATA     BIT       ET2
      000000B5H   SFRSYM    DATA     BYTE      IP2
L251 LINKER/LOCATER V4.66.93.0                                                        03/28/2026  21:02:40  PAGE 92


      000000FFH   SFRSYM    DATA     BYTE      RSTCFG
      000000A8H.3 SFRSYM    DATA     BIT       ET1
      000000AFH.0 SFRSYM    DATA     BIT       ES2
      000000A8H.1 SFRSYM    DATA     BIT       ET0
      000000C7H   SFRSYM    DATA     BYTE      IAP_CONTR
      000000F9H   SFRSYM    DATA     BYTE      LINICR
      0000008EH   SFRSYM    DATA     BYTE      AUXR
      000000AFH   SFRSYM    DATA     BYTE      IE2
      000000B5H.1 SFRSYM    DATA     BIT       PSPI
      000000DFH.2 SFRSYM    DATA     BIT       PRTC
      00000088H   SFRSYM    DATA     BYTE      TCON
      00000089H   SFRSYM    DATA     BYTE      TMOD
      00000098H   SFRSYM    DATA     BYTE      SCON
      000000AFH.1 SFRSYM    DATA     BIT       ESPI
      000000F1H   SFRSYM    DATA     BYTE      CANICR
      00000087H   SFRSYM    DATA     BYTE      PCON
      000000B5H.5 SFRSYM    DATA     BIT       PCMP
      000000BCH   SFRSYM    DATA     BYTE      ADC_CONTR
      000000D1H   SFRSYM    DATA     BYTE      PSW1
      000000E7H   SFRSYM    DATA     BYTE      CMPCR2
      000000E6H   SFRSYM    DATA     BYTE      CMPCR1
      000000B8H.4 SFRSYM    DATA     BIT       PS
      000000B7H.2 SFRSYM    DATA     BIT       PX1H
      000000B7H.0 SFRSYM    DATA     BIT       PX0H
      000000EEH.1 SFRSYM    DATA     BIT       PS4H
      000000EEH.0 SFRSYM    DATA     BIT       PS3H
      000000B6H.0 SFRSYM    DATA     BIT       PS2H
      000000B7H.3 SFRSYM    DATA     BIT       PT1H
      000000B7H.1 SFRSYM    DATA     BIT       PT0H
      000000DEH   SFRSYM    DATA     BYTE      ADCCFG
      000000B8H   SFRSYM    DATA     BYTE      IP
      000000B8H.5 SFRSYM    DATA     BIT       PADC
      000000A8H.4 SFRSYM    DATA     BIT       ES
      0000008FH   SFRSYM    DATA     BYTE      INTCLKO
      000000EEH   SFRSYM    DATA     BYTE      IP3H
      000000B6H   SFRSYM    DATA     BYTE      IP2H
      000000BFH   SFRSYM    DATA     BYTE      P_SW4
      000000A8H   SFRSYM    DATA     BYTE      IE
      000000A8H.5 SFRSYM    DATA     BIT       EADC
      000000BBH   SFRSYM    DATA     BYTE      P_SW3
      000000BAH   SFRSYM    DATA     BYTE      P_SW2
      000000A2H   SFRSYM    DATA     BYTE      P_SW1
      000000B5H.3 SFRSYM    DATA     BIT       PPWMB
      000000CEH   SFRSYM    DATA     BYTE      SPCTL
      000000B5H.2 SFRSYM    DATA     BIT       PPWMA
      000000F8H   SFRSYM    DATA     BYTE      P7
      000000B6H.1 SFRSYM    DATA     BIT       PSPIH
      000000E8H   SFRSYM    DATA     BYTE      P6
      000000C8H   SFRSYM    DATA     BYTE      P5
      000000C0H   SFRSYM    DATA     BYTE      P4
      000000ABH   SFRSYM    DATA     BYTE      WKTCH
      000000B0H   SFRSYM    DATA     BYTE      P3
      000000EEH.2 SFRSYM    DATA     BIT       PRTCH
      000000A0H   SFRSYM    DATA     BYTE      P2
      00000090H   SFRSYM    DATA     BYTE      P1
      00000080H   SFRSYM    DATA     BYTE      P0

      00FF5575H   BLOCK     CODE     ---       LVL=0
      R11         REGSYM    ---      BYTE      State
      R10         REGSYM    ---      BYTE      Priority
      00FF5575H   LINE      CODE     ---       #15
      00FF5577H   LINE      CODE     ---       #17
      00FF557CH   LINE      CODE     ---       #18
      00FF5586H   LINE      CODE     ---       #20
      00FF5589H   LINE      CODE     ---       #21
L251 LINKER/LOCATER V4.66.93.0                                                        03/28/2026  21:02:40  PAGE 93


      00FF558EH   LINE      CODE     ---       #22
      00FF55B7H   LINE      CODE     ---       #24
      00FF55BAH   LINE      CODE     ---       #25
      00FF55BBH   LINE      CODE     ---       #26
      ---         BLOCKEND  ---      ---       LVL=0

      00FF55BCH   BLOCK     CODE     ---       LVL=0
      R11         REGSYM    ---      BYTE      State
      R10         REGSYM    ---      BYTE      Priority
      00FF55BCH   LINE      CODE     ---       #36
      00FF55BEH   LINE      CODE     ---       #38
      00FF55C3H   LINE      CODE     ---       #39
      00FF55CDH   LINE      CODE     ---       #41
      00FF55D0H   LINE      CODE     ---       #42
      00FF55D5H   LINE      CODE     ---       #43
      00FF55FEH   LINE      CODE     ---       #45
      00FF5601H   LINE      CODE     ---       #46
      00FF5602H   LINE      CODE     ---       #47
      ---         BLOCKEND  ---      ---       LVL=0
      R7          REGSYM    ---      BYTE      State

      00FF5B01H   BLOCK     CODE     ---       LVL=0
      R7          REGSYM    ---      BYTE      State
      00FF5B01H   LINE      CODE     ---       #75
      00FF5B03H   LINE      CODE     ---       #77
      00FF5B08H   LINE      CODE     ---       #78
      00FF5B16H   LINE      CODE     ---       #80
      00FF5B19H   LINE      CODE     ---       #81
      00FF5B19H   LINE      CODE     ---       #82
      00FF5B1AH   LINE      CODE     ---       #83
      ---         BLOCKEND  ---      ---       LVL=0

      00FF5B1BH   BLOCK     CODE     ---       LVL=0
      R7          REGSYM    ---      BYTE      State
      00FF5B1BH   LINE      CODE     ---       #93
      00FF5B1DH   LINE      CODE     ---       #95
      00FF5B22H   LINE      CODE     ---       #96
      00FF5B30H   LINE      CODE     ---       #98
      00FF5B33H   LINE      CODE     ---       #99
      00FF5B33H   LINE      CODE     ---       #100
      00FF5B34H   LINE      CODE     ---       #101
      ---         BLOCKEND  ---      ---       LVL=0

      00FF57DFH   BLOCK     CODE     ---       LVL=0
      R7          REGSYM    ---      BYTE      State
      00FF57DFH   LINE      CODE     ---       #111
      00FF57E1H   LINE      CODE     ---       #113
      00FF57E6H   LINE      CODE     ---       #114
      00FF580BH   LINE      CODE     ---       #116
      00FF580EH   LINE      CODE     ---       #117
      00FF580EH   LINE      CODE     ---       #118
      00FF580FH   LINE      CODE     ---       #119
      ---         BLOCKEND  ---      ---       LVL=0
      R11         REGSYM    ---      BYTE      State
      R10         REGSYM    ---      BYTE      Priority
      R11         REGSYM    ---      BYTE      State
      R10         REGSYM    ---      BYTE      Priority
      R7          REGSYM    ---      BYTE      State
      R7          REGSYM    ---      BYTE      State
      R7          REGSYM    ---      BYTE      State

      00FF5603H   BLOCK     CODE     ---       LVL=0
      R11         REGSYM    ---      BYTE      State
      R10         REGSYM    ---      BYTE      Priority
      00FF5603H   LINE      CODE     ---       #226
L251 LINKER/LOCATER V4.66.93.0                                                        03/28/2026  21:02:40  PAGE 94


      00FF5605H   LINE      CODE     ---       #228
      00FF560AH   LINE      CODE     ---       #229
      00FF5614H   LINE      CODE     ---       #231
      00FF5617H   LINE      CODE     ---       #232
      00FF561CH   LINE      CODE     ---       #233
      00FF5645H   LINE      CODE     ---       #235
      00FF5648H   LINE      CODE     ---       #236
      00FF5649H   LINE      CODE     ---       #237
      ---         BLOCKEND  ---      ---       LVL=0
      R7          REGSYM    ---      BYTE      State
      R10         REGSYM    ---      BYTE      Priority
      R3          REGSYM    ---      BYTE      Mode
      R10         REGSYM    ---      BYTE      State
      R2          REGSYM    ---      BYTE      Priority
      R11         REGSYM    ---      BYTE      State
      R10         REGSYM    ---      BYTE      Priority
      R11         REGSYM    ---      BYTE      State
      R10         REGSYM    ---      BYTE      Priority
      R11         REGSYM    ---      BYTE      State
      R10         REGSYM    ---      BYTE      Priority
      R11         REGSYM    ---      BYTE      State
      R10         REGSYM    ---      BYTE      Priority
      R11         REGSYM    ---      BYTE      State
      R10         REGSYM    ---      BYTE      Priority
      R3          REGSYM    ---      BYTE      State
      R10         REGSYM    ---      BYTE      Priority

      00FF4F6DH   BLOCK     CODE     ---       LVL=0
      R2          REGSYM    ---      BYTE      Channel
      R3          REGSYM    ---      BYTE      State
      R10         REGSYM    ---      BYTE      Priority
      00FF4F6DH   LINE      CODE     ---       #431
      00FF4F73H   LINE      CODE     ---       #433
      00FF4F78H   LINE      CODE     ---       #434
      00FF4F7BH   LINE      CODE     ---       #435
      00FF4F80H   LINE      CODE     ---       #436
      00FF4F83H   LINE      CODE     ---       #437
      00FF4F8CH   LINE      CODE     ---       #439
      00FF4F8CH   LINE      CODE     ---       #440
      00FF4F97H   LINE      CODE     ---       #441
      00FF4FC2H   LINE      CODE     ---       #442
      00FF4FC4H   LINE      CODE     ---       #444
      00FF4FC4H   LINE      CODE     ---       #445
      00FF4FCFH   LINE      CODE     ---       #446
      00FF4FFAH   LINE      CODE     ---       #447
      00FF4FFCH   LINE      CODE     ---       #449
      00FF4FFCH   LINE      CODE     ---       #450
      00FF5007H   LINE      CODE     ---       #451
      00FF5007H   LINE      CODE     ---       #452
      00FF5007H   LINE      CODE     ---       #453
      00FF5007H   LINE      CODE     ---       #454
      00FF5008H   LINE      CODE     ---       #455
      ---         BLOCKEND  ---      ---       LVL=0
      R9          REGSYM    ---      BYTE      State
      R3          REGSYM    ---      BYTE      Priority
      R10         REGSYM    ---      BYTE      Bus_Priority
      R9          REGSYM    ---      BYTE      State
      R3          REGSYM    ---      BYTE      Priority
      R10         REGSYM    ---      BYTE      Bus_Priority
      R9          REGSYM    ---      BYTE      State
      R3          REGSYM    ---      BYTE      Priority
      R10         REGSYM    ---      BYTE      Bus_Priority
      R9          REGSYM    ---      BYTE      State
      R3          REGSYM    ---      BYTE      Priority
      R10         REGSYM    ---      BYTE      Bus_Priority
L251 LINKER/LOCATER V4.66.93.0                                                        03/28/2026  21:02:40  PAGE 95


      R9          REGSYM    ---      BYTE      State
      R3          REGSYM    ---      BYTE      Priority
      R10         REGSYM    ---      BYTE      Bus_Priority
      R9          REGSYM    ---      BYTE      State
      R3          REGSYM    ---      BYTE      Priority
      R10         REGSYM    ---      BYTE      Bus_Priority
      R9          REGSYM    ---      BYTE      State
      R3          REGSYM    ---      BYTE      Priority
      R10         REGSYM    ---      BYTE      Bus_Priority
      R9          REGSYM    ---      BYTE      State
      R3          REGSYM    ---      BYTE      Priority
      R10         REGSYM    ---      BYTE      Bus_Priority
      R9          REGSYM    ---      BYTE      State
      R3          REGSYM    ---      BYTE      Priority
      R10         REGSYM    ---      BYTE      Bus_Priority
      R9          REGSYM    ---      BYTE      State
      R3          REGSYM    ---      BYTE      Priority
      R10         REGSYM    ---      BYTE      Bus_Priority
      R9          REGSYM    ---      BYTE      State
      R3          REGSYM    ---      BYTE      Priority
      R10         REGSYM    ---      BYTE      Bus_Priority
      R9          REGSYM    ---      BYTE      State
      R3          REGSYM    ---      BYTE      Priority
      R10         REGSYM    ---      BYTE      Bus_Priority
      R9          REGSYM    ---      BYTE      State
      R3          REGSYM    ---      BYTE      Priority
      R10         REGSYM    ---      BYTE      Bus_Priority

      ---         MODULE    ---      ---       AI8051U_PWM
      00FF216DH   PUBLIC    CODE     ---       PWM_Configuration
      00FF43D1H   PUBLIC    CODE     ---       UpdatePwmCh
      000000D0H   SFRSYM    DATA     BYTE      PSW
      0000009DH   SFRSYM    DATA     BYTE      IRCBAND
      00000097H   SFRSYM    DATA     BYTE      AUXR2
      000000EFH   SFRSYM    DATA     BYTE      AUXINTIF
      000000FDH   SFRSYM    DATA     BYTE      S4CON
      000000ACH   SFRSYM    DATA     BYTE      S3CON
      0000009AH   SFRSYM    DATA     BYTE      S2CON
      000000B7H   SFRSYM    DATA     BYTE      IPH
      000000CDH   SFRSYM    DATA     BYTE      SPSTAT
      000000DDH   SFRSYM    DATA     BYTE      T4T3M
      000000C1H   SFRSYM    DATA     BYTE      WDT_CONTR
      000000DFH   SFRSYM    DATA     BYTE      IP3
      000000F4H   SFRSYM    DATA     BYTE      USBCON
      000000B5H   SFRSYM    DATA     BYTE      IP2
      000000FFH   SFRSYM    DATA     BYTE      RSTCFG
      000000C7H   SFRSYM    DATA     BYTE      IAP_CONTR
      000000F9H   SFRSYM    DATA     BYTE      LINICR
      0000008EH   SFRSYM    DATA     BYTE      AUXR
      000000AFH   SFRSYM    DATA     BYTE      IE2
      00000088H   SFRSYM    DATA     BYTE      TCON
      00000089H   SFRSYM    DATA     BYTE      TMOD
      00000098H   SFRSYM    DATA     BYTE      SCON
      000000F1H   SFRSYM    DATA     BYTE      CANICR
      00000087H   SFRSYM    DATA     BYTE      PCON
      000000BCH   SFRSYM    DATA     BYTE      ADC_CONTR
      000000D1H   SFRSYM    DATA     BYTE      PSW1
      000000E7H   SFRSYM    DATA     BYTE      CMPCR2
      000000E6H   SFRSYM    DATA     BYTE      CMPCR1
      000000DEH   SFRSYM    DATA     BYTE      ADCCFG
      000000B8H   SFRSYM    DATA     BYTE      IP
      0000008FH   SFRSYM    DATA     BYTE      INTCLKO
      000000EEH   SFRSYM    DATA     BYTE      IP3H
      000000B6H   SFRSYM    DATA     BYTE      IP2H
      000000BFH   SFRSYM    DATA     BYTE      P_SW4
L251 LINKER/LOCATER V4.66.93.0                                                        03/28/2026  21:02:40  PAGE 96


      000000A8H   SFRSYM    DATA     BYTE      IE
      000000BBH   SFRSYM    DATA     BYTE      P_SW3
      000000BAH   SFRSYM    DATA     BYTE      P_SW2
      000000A2H   SFRSYM    DATA     BYTE      P_SW1
      000000CEH   SFRSYM    DATA     BYTE      SPCTL
      000000F8H   SFRSYM    DATA     BYTE      P7
      000000E8H   SFRSYM    DATA     BYTE      P6
      000000C8H   SFRSYM    DATA     BYTE      P5
      000000C0H   SFRSYM    DATA     BYTE      P4
      000000ABH   SFRSYM    DATA     BYTE      WKTCH
      000000B0H   SFRSYM    DATA     BYTE      P3
      000000A0H   SFRSYM    DATA     BYTE      P2
      00000090H   SFRSYM    DATA     BYTE      P1
      00000080H   SFRSYM    DATA     BYTE      P0

      00FF216DH   BLOCK     CODE     ---       LVL=0
      R7          REGSYM    ---      BYTE      PWM
      REG=7       REGSYM    ---      ---       PWMx
      00FF216DH   LINE      CODE     ---       #14
      00FF2171H   LINE      CODE     ---       #16
      00FF217AH   LINE      CODE     ---       #18
      00FF218AH   LINE      CODE     ---       #19
      00FF2192H   LINE      CODE     ---       #20
      00FF21A2H   LINE      CODE     ---       #21
      00FF21B0H   LINE      CODE     ---       #23
      00FF21B9H   LINE      CODE     ---       #25
      00FF21C1H   LINE      CODE     ---       #26
      00FF21CEH   LINE      CODE     ---       #27
      00FF21D0H   LINE      CODE     ---       #30
      00FF21D8H   LINE      CODE     ---       #31
      00FF21E8H   LINE      CODE     ---       #32
      00FF21E8H   LINE      CODE     ---       #33
      00FF21EDH   LINE      CODE     ---       #35
      00FF21F5H   LINE      CODE     ---       #36
      00FF2205H   LINE      CODE     ---       #37
      00FF2207H   LINE      CODE     ---       #40
      00FF220FH   LINE      CODE     ---       #41
      00FF221FH   LINE      CODE     ---       #42
      00FF221FH   LINE      CODE     ---       #44
      00FF2232H   LINE      CODE     ---       #45
      00FF2235H   LINE      CODE     ---       #46
      00FF2235H   LINE      CODE     ---       #48
      00FF223EH   LINE      CODE     ---       #50
      00FF224EH   LINE      CODE     ---       #51
      00FF2256H   LINE      CODE     ---       #52
      00FF2266H   LINE      CODE     ---       #53
      00FF2274H   LINE      CODE     ---       #55
      00FF227DH   LINE      CODE     ---       #57
      00FF2285H   LINE      CODE     ---       #58
      00FF2292H   LINE      CODE     ---       #59
      00FF2294H   LINE      CODE     ---       #62
      00FF229CH   LINE      CODE     ---       #63
      00FF22ACH   LINE      CODE     ---       #64
      00FF22ACH   LINE      CODE     ---       #65
      00FF22B1H   LINE      CODE     ---       #67
      00FF22B9H   LINE      CODE     ---       #68
      00FF22C9H   LINE      CODE     ---       #69
      00FF22CBH   LINE      CODE     ---       #72
      00FF22D3H   LINE      CODE     ---       #73
      00FF22E3H   LINE      CODE     ---       #74
      00FF22E3H   LINE      CODE     ---       #76
      00FF22F6H   LINE      CODE     ---       #77
      00FF22F9H   LINE      CODE     ---       #78
      00FF22F9H   LINE      CODE     ---       #80
      00FF2302H   LINE      CODE     ---       #82
L251 LINKER/LOCATER V4.66.93.0                                                        03/28/2026  21:02:40  PAGE 97


      00FF2312H   LINE      CODE     ---       #83
      00FF231AH   LINE      CODE     ---       #84
      00FF232AH   LINE      CODE     ---       #85
      00FF2338H   LINE      CODE     ---       #87
      00FF2341H   LINE      CODE     ---       #89
      00FF2349H   LINE      CODE     ---       #90
      00FF2356H   LINE      CODE     ---       #91
      00FF2358H   LINE      CODE     ---       #94
      00FF2360H   LINE      CODE     ---       #95
      00FF2370H   LINE      CODE     ---       #96
      00FF2370H   LINE      CODE     ---       #97
      00FF2375H   LINE      CODE     ---       #99
      00FF237DH   LINE      CODE     ---       #100
      00FF238DH   LINE      CODE     ---       #101
      00FF238FH   LINE      CODE     ---       #104
      00FF2397H   LINE      CODE     ---       #105
      00FF23A7H   LINE      CODE     ---       #106
      00FF23A7H   LINE      CODE     ---       #108
      00FF23BAH   LINE      CODE     ---       #109
      00FF23BDH   LINE      CODE     ---       #110
      00FF23BDH   LINE      CODE     ---       #112
      00FF23C6H   LINE      CODE     ---       #114
      00FF23D6H   LINE      CODE     ---       #115
      00FF23DEH   LINE      CODE     ---       #116
      00FF23EEH   LINE      CODE     ---       #117
      00FF23FCH   LINE      CODE     ---       #119
      00FF2405H   LINE      CODE     ---       #121
      00FF240DH   LINE      CODE     ---       #122
      00FF241AH   LINE      CODE     ---       #123
      00FF241CH   LINE      CODE     ---       #126
      00FF2424H   LINE      CODE     ---       #127
      00FF2434H   LINE      CODE     ---       #128
      00FF2434H   LINE      CODE     ---       #129
      00FF2439H   LINE      CODE     ---       #131
      00FF2441H   LINE      CODE     ---       #132
      00FF2451H   LINE      CODE     ---       #133
      00FF2453H   LINE      CODE     ---       #136
      00FF245BH   LINE      CODE     ---       #137
      00FF246BH   LINE      CODE     ---       #138
      00FF246BH   LINE      CODE     ---       #140
      00FF247EH   LINE      CODE     ---       #141
      00FF2481H   LINE      CODE     ---       #142
      00FF2481H   LINE      CODE     ---       #144
      00FF2485H   LINE      CODE     ---       #151
      00FF2494H   LINE      CODE     ---       #152
      00FF24A6H   LINE      CODE     ---       #153
      00FF24CCH   LINE      CODE     ---       #154
      00FF24F0H   LINE      CODE     ---       #155
      00FF24F3H   LINE      CODE     ---       #156
      00FF24F3H   LINE      CODE     ---       #158
      00FF24FCH   LINE      CODE     ---       #160
      00FF250CH   LINE      CODE     ---       #161
      00FF251CH   LINE      CODE     ---       #162
      00FF252AH   LINE      CODE     ---       #164
      00FF2531H   LINE      CODE     ---       #166
      00FF2539H   LINE      CODE     ---       #167
      00FF2549H   LINE      CODE     ---       #168
      00FF254BH   LINE      CODE     ---       #171
      00FF2553H   LINE      CODE     ---       #172
      00FF2563H   LINE      CODE     ---       #173
      00FF2563H   LINE      CODE     ---       #175
      00FF2576H   LINE      CODE     ---       #176
      00FF2579H   LINE      CODE     ---       #177
      00FF2579H   LINE      CODE     ---       #179
      00FF2582H   LINE      CODE     ---       #181
L251 LINKER/LOCATER V4.66.93.0                                                        03/28/2026  21:02:40  PAGE 98


      00FF2592H   LINE      CODE     ---       #182
      00FF25A2H   LINE      CODE     ---       #183
      00FF25B0H   LINE      CODE     ---       #185
      00FF25B7H   LINE      CODE     ---       #187
      00FF25BFH   LINE      CODE     ---       #188
      00FF25CFH   LINE      CODE     ---       #189
      00FF25D1H   LINE      CODE     ---       #192
      00FF25D9H   LINE      CODE     ---       #193
      00FF25E9H   LINE      CODE     ---       #194
      00FF25E9H   LINE      CODE     ---       #196
      00FF25FCH   LINE      CODE     ---       #197
      00FF25FFH   LINE      CODE     ---       #198
      00FF25FFH   LINE      CODE     ---       #200
      00FF2608H   LINE      CODE     ---       #202
      00FF2618H   LINE      CODE     ---       #203
      00FF2628H   LINE      CODE     ---       #204
      00FF2636H   LINE      CODE     ---       #206
      00FF263DH   LINE      CODE     ---       #208
      00FF2645H   LINE      CODE     ---       #209
      00FF2655H   LINE      CODE     ---       #210
      00FF2657H   LINE      CODE     ---       #213
      00FF265FH   LINE      CODE     ---       #214
      00FF266FH   LINE      CODE     ---       #215
      00FF266FH   LINE      CODE     ---       #217
      00FF2682H   LINE      CODE     ---       #218
      00FF2685H   LINE      CODE     ---       #219
      00FF2685H   LINE      CODE     ---       #221
      00FF268EH   LINE      CODE     ---       #223
      00FF269EH   LINE      CODE     ---       #224
      00FF26AEH   LINE      CODE     ---       #225
      00FF26BCH   LINE      CODE     ---       #227
      00FF26C3H   LINE      CODE     ---       #229
      00FF26CBH   LINE      CODE     ---       #230
      00FF26DBH   LINE      CODE     ---       #231
      00FF26DDH   LINE      CODE     ---       #234
      00FF26E5H   LINE      CODE     ---       #235
      00FF26F5H   LINE      CODE     ---       #236
      00FF26F5H   LINE      CODE     ---       #238
      00FF270FH   LINE      CODE     ---       #239
      00FF2711H   LINE      CODE     ---       #240
      00FF2711H   LINE      CODE     ---       #242
      00FF2715H   LINE      CODE     ---       #249
      00FF2724H   LINE      CODE     ---       #250
      00FF2736H   LINE      CODE     ---       #251
      00FF275CH   LINE      CODE     ---       #252
      00FF2782H   LINE      CODE     ---       #253
      00FF2784H   LINE      CODE     ---       #254
      00FF2784H   LINE      CODE     ---       #256
      00FF2786H   LINE      CODE     ---       #257
      ---         BLOCKEND  ---      ---       LVL=0
      R11         REGSYM    ---      BYTE      PWM
      REG=7       REGSYM    ---      ---       PWMx

      00FF43D1H   BLOCK     CODE     ---       LVL=0
      R11         REGSYM    ---      BYTE      PWM_CH
      WR0         REGSYM    ---      WORD      Duty
      00FF43D1H   LINE      CODE     ---       #325
      00FF43D3H   LINE      CODE     ---       #327
      00FF4402H   LINE      CODE     ---       #329
      00FF4402H   LINE      CODE     ---       #330
      00FF4413H   LINE      CODE     ---       #331
      00FF4416H   LINE      CODE     ---       #333
      00FF4416H   LINE      CODE     ---       #334
      00FF4427H   LINE      CODE     ---       #335
      00FF442AH   LINE      CODE     ---       #337
L251 LINKER/LOCATER V4.66.93.0                                                        03/28/2026  21:02:40  PAGE 99


      00FF442AH   LINE      CODE     ---       #338
      00FF443BH   LINE      CODE     ---       #339
      00FF443EH   LINE      CODE     ---       #341
      00FF443EH   LINE      CODE     ---       #342
      00FF444FH   LINE      CODE     ---       #343
      00FF4452H   LINE      CODE     ---       #345
      00FF4452H   LINE      CODE     ---       #346
      00FF4463H   LINE      CODE     ---       #347
      00FF4466H   LINE      CODE     ---       #349
      00FF4466H   LINE      CODE     ---       #350
      00FF4477H   LINE      CODE     ---       #351
      00FF447AH   LINE      CODE     ---       #353
      00FF447AH   LINE      CODE     ---       #354
      00FF448BH   LINE      CODE     ---       #355
      00FF448EH   LINE      CODE     ---       #357
      00FF448EH   LINE      CODE     ---       #358
      00FF449FH   LINE      CODE     ---       #359
      00FF44A1H   LINE      CODE     ---       #361
      00FF44A1H   LINE      CODE     ---       #362
      00FF44B5H   LINE      CODE     ---       #363
      00FF44C3H   LINE      CODE     ---       #364
      00FF44D1H   LINE      CODE     ---       #365
      00FF44DCH   LINE      CODE     ---       #366
      00FF44DEH   LINE      CODE     ---       #368
      00FF44DEH   LINE      CODE     ---       #369
      00FF44F2H   LINE      CODE     ---       #370
      00FF4500H   LINE      CODE     ---       #371
      00FF450EH   LINE      CODE     ---       #372
      00FF4520H   LINE      CODE     ---       #373
      00FF4520H   LINE      CODE     ---       #374
      00FF4520H   LINE      CODE     ---       #375
      ---         BLOCKEND  ---      ---       LVL=0
      R10         REGSYM    ---      BYTE      addr
      R11         REGSYM    ---      BYTE      dat
      R10         REGSYM    ---      BYTE      addr
      R11         REGSYM    ---      BYTE      dat
      R3          REGSYM    ---      BYTE      addr
      R10         REGSYM    ---      BYTE      dat
      R3          REGSYM    ---      BYTE      addr
      R10         REGSYM    ---      BYTE      dat
      R7          REGSYM    ---      BYTE      PWM
      REG=3       REGSYM    ---      ---       PWMx
      R11         REGSYM    ---      BYTE      PWM
      REG=3       REGSYM    ---      ---       PWMx

      ---         MODULE    ---      ---       AI8051U_SPI
      00000022H.6 PUBLIC    BIT      BIT       B_SPI_Busy
      00010619H   PUBLIC    XDATA    BYTE      SPI_Wait_time_out
      0001061AH   PUBLIC    XDATA    BYTE      SPI_RxTimerOut
      000002A3H   PUBLIC    EDATA    ---       SPI_RxBuffer
      000000CFH   SFRSYM    DATA     BYTE      SPDAT
      000000D0H   SFRSYM    DATA     BYTE      PSW
      0000009DH   SFRSYM    DATA     BYTE      IRCBAND
      00000097H   SFRSYM    DATA     BYTE      AUXR2
      000000EFH   SFRSYM    DATA     BYTE      AUXINTIF
      000000FDH   SFRSYM    DATA     BYTE      S4CON
      000000ACH   SFRSYM    DATA     BYTE      S3CON
      0000009AH   SFRSYM    DATA     BYTE      S2CON
      000000B7H   SFRSYM    DATA     BYTE      IPH
      000000CDH   SFRSYM    DATA     BYTE      SPSTAT
      000000DDH   SFRSYM    DATA     BYTE      T4T3M
      000000C1H   SFRSYM    DATA     BYTE      WDT_CONTR
      000000DFH   SFRSYM    DATA     BYTE      IP3
      000000F4H   SFRSYM    DATA     BYTE      USBCON
      000000B5H   SFRSYM    DATA     BYTE      IP2
L251 LINKER/LOCATER V4.66.93.0                                                        03/28/2026  21:02:40  PAGE 100


      000000FFH   SFRSYM    DATA     BYTE      RSTCFG
      000000CEH.4 SFRSYM    DATA     BIT       MSTR
      000000C7H   SFRSYM    DATA     BYTE      IAP_CONTR
      000000F9H   SFRSYM    DATA     BYTE      LINICR
      0000008EH   SFRSYM    DATA     BYTE      AUXR
      000000AFH   SFRSYM    DATA     BYTE      IE2
      000000CEH.7 SFRSYM    DATA     BIT       SSIG
      000000CEH.6 SFRSYM    DATA     BIT       SPEN
      000000CDH.6 SFRSYM    DATA     BIT       WCOL
      00000088H   SFRSYM    DATA     BYTE      TCON
      00000089H   SFRSYM    DATA     BYTE      TMOD
      00000098H   SFRSYM    DATA     BYTE      SCON
      000000CDH.7 SFRSYM    DATA     BIT       SPIF
      000000AFH.1 SFRSYM    DATA     BIT       ESPI
      000000F1H   SFRSYM    DATA     BYTE      CANICR
      00000087H   SFRSYM    DATA     BYTE      PCON
      000000BCH   SFRSYM    DATA     BYTE      ADC_CONTR
      000000CEH.3 SFRSYM    DATA     BIT       CPOL
      000000D1H   SFRSYM    DATA     BYTE      PSW1
      000000CEH.5 SFRSYM    DATA     BIT       DORD
      000000E7H   SFRSYM    DATA     BYTE      CMPCR2
      000000E6H   SFRSYM    DATA     BYTE      CMPCR1
      000000CEH.2 SFRSYM    DATA     BIT       CPHA
      000000DEH   SFRSYM    DATA     BYTE      ADCCFG
      000000B8H   SFRSYM    DATA     BYTE      IP
      0000008FH   SFRSYM    DATA     BYTE      INTCLKO
      000000EEH   SFRSYM    DATA     BYTE      IP3H
      000000B6H   SFRSYM    DATA     BYTE      IP2H
      000000BFH   SFRSYM    DATA     BYTE      P_SW4
      000000A8H   SFRSYM    DATA     BYTE      IE
      000000BBH   SFRSYM    DATA     BYTE      P_SW3
      000000BAH   SFRSYM    DATA     BYTE      P_SW2
      000000A2H   SFRSYM    DATA     BYTE      P_SW1
      000000CEH   SFRSYM    DATA     BYTE      SPCTL
      000000F8H   SFRSYM    DATA     BYTE      P7
      000000E8H   SFRSYM    DATA     BYTE      P6
      000000C8H   SFRSYM    DATA     BYTE      P5
      000000C0H   SFRSYM    DATA     BYTE      P4
      000000ABH   SFRSYM    DATA     BYTE      WKTCH
      000000B0H   SFRSYM    DATA     BYTE      P3
      000000A0H   SFRSYM    DATA     BYTE      P2
      00000090H   SFRSYM    DATA     BYTE      P1
      00000080H   SFRSYM    DATA     BYTE      P0
      REG=0       REGSYM    ---      ---       SPIx
      R7          REGSYM    ---      BYTE      mode
      R15         REGSYM    ---      BYTE      dat

      ---         MODULE    ---      ---       AI8051U_Timer
      00FF32D7H   PUBLIC    CODE     ---       Timer_Inilize
      0000008EH.3 SFRSYM    DATA     BIT       T2_CT
      00000089H.6 SFRSYM    DATA     BIT       T1_CT
      00000089H.2 SFRSYM    DATA     BIT       T0_CT
      000000D0H   SFRSYM    DATA     BYTE      PSW
      0000009DH   SFRSYM    DATA     BYTE      IRCBAND
      00000097H   SFRSYM    DATA     BYTE      AUXR2
      000000EFH   SFRSYM    DATA     BYTE      AUXINTIF
      000000FDH   SFRSYM    DATA     BYTE      S4CON
      000000ACH   SFRSYM    DATA     BYTE      S3CON
      0000009AH   SFRSYM    DATA     BYTE      S2CON
      000000DDH.5 SFRSYM    DATA     BIT       T4x12
      000000DDH.1 SFRSYM    DATA     BIT       T3x12
      0000008EH.2 SFRSYM    DATA     BIT       T2x12
      0000008EH.6 SFRSYM    DATA     BIT       T1x12
      000000B7H   SFRSYM    DATA     BYTE      IPH
      000000CDH   SFRSYM    DATA     BYTE      SPSTAT
L251 LINKER/LOCATER V4.66.93.0                                                        03/28/2026  21:02:40  PAGE 101


      0000008EH.7 SFRSYM    DATA     BIT       T0x12
      000000DDH   SFRSYM    DATA     BYTE      T4T3M
      000000DDH.7 SFRSYM    DATA     BIT       T4R
      000000DDH.3 SFRSYM    DATA     BIT       T3R
      0000008EH.4 SFRSYM    DATA     BIT       T2R
      000000C1H   SFRSYM    DATA     BYTE      WDT_CONTR
      00000088H.6 SFRSYM    DATA     BIT       TR1
      00000088H.4 SFRSYM    DATA     BIT       TR0
      000000D3H   SFRSYM    DATA     BYTE      T4L
      000000D5H   SFRSYM    DATA     BYTE      T3L
      000000D7H   SFRSYM    DATA     BYTE      T2L
      0000008BH   SFRSYM    DATA     BYTE      TL1
      0000008AH   SFRSYM    DATA     BYTE      TL0
      000000D2H   SFRSYM    DATA     BYTE      T4H
      000000D4H   SFRSYM    DATA     BYTE      T3H
      000000D6H   SFRSYM    DATA     BYTE      T2H
      0000008DH   SFRSYM    DATA     BYTE      TH1
      0000008CH   SFRSYM    DATA     BYTE      TH0
      000000DFH   SFRSYM    DATA     BYTE      IP3
      000000F4H   SFRSYM    DATA     BYTE      USBCON
      000000B5H   SFRSYM    DATA     BYTE      IP2
      000000FFH   SFRSYM    DATA     BYTE      RSTCFG
      000000C7H   SFRSYM    DATA     BYTE      IAP_CONTR
      000000F9H   SFRSYM    DATA     BYTE      LINICR
      0000008EH   SFRSYM    DATA     BYTE      AUXR
      000000AFH   SFRSYM    DATA     BYTE      IE2
      00000088H   SFRSYM    DATA     BYTE      TCON
      00000089H   SFRSYM    DATA     BYTE      TMOD
      00000098H   SFRSYM    DATA     BYTE      SCON
      000000DDH.4 SFRSYM    DATA     BIT       T4CLKO
      000000DDH.0 SFRSYM    DATA     BIT       T3CLKO
      000000F1H   SFRSYM    DATA     BYTE      CANICR
      00000087H   SFRSYM    DATA     BYTE      PCON
      0000008FH.2 SFRSYM    DATA     BIT       T2CLKO
      000000BCH   SFRSYM    DATA     BYTE      ADC_CONTR
      0000008FH.1 SFRSYM    DATA     BIT       T1CLKO
      0000008FH.0 SFRSYM    DATA     BIT       T0CLKO
      000000D1H   SFRSYM    DATA     BYTE      PSW1
      000000E7H   SFRSYM    DATA     BYTE      CMPCR2
      000000E6H   SFRSYM    DATA     BYTE      CMPCR1
      000000DEH   SFRSYM    DATA     BYTE      ADCCFG
      000000B8H   SFRSYM    DATA     BYTE      IP
      0000008FH   SFRSYM    DATA     BYTE      INTCLKO
      000000EEH   SFRSYM    DATA     BYTE      IP3H
      000000B6H   SFRSYM    DATA     BYTE      IP2H
      000000BFH   SFRSYM    DATA     BYTE      P_SW4
      000000A8H   SFRSYM    DATA     BYTE      IE
      000000BBH   SFRSYM    DATA     BYTE      P_SW3
      000000BAH   SFRSYM    DATA     BYTE      P_SW2
      000000A2H   SFRSYM    DATA     BYTE      P_SW1
      000000CEH   SFRSYM    DATA     BYTE      SPCTL
      000000F8H   SFRSYM    DATA     BYTE      P7
      000000E8H   SFRSYM    DATA     BYTE      P6
      000000C8H   SFRSYM    DATA     BYTE      P5
      000000C0H   SFRSYM    DATA     BYTE      P4
      000000ABH   SFRSYM    DATA     BYTE      WKTCH
      000000B0H   SFRSYM    DATA     BYTE      P3
      000000A0H   SFRSYM    DATA     BYTE      P2
      00000090H   SFRSYM    DATA     BYTE      P1
      00000080H   SFRSYM    DATA     BYTE      P0
      000000DDH.6 SFRSYM    DATA     BIT       T4_CT
      000000DDH.2 SFRSYM    DATA     BIT       T3_CT

      00FF32D7H   BLOCK     CODE     ---       LVL=0
      R7          REGSYM    ---      BYTE      TIM
L251 LINKER/LOCATER V4.66.93.0                                                        03/28/2026  21:02:40  PAGE 102


      REG=7       REGSYM    ---      ---       TIMx
      00FF32D7H   LINE      CODE     ---       #16
      00FF32DBH   LINE      CODE     ---       #18
      00FF32DFH   LINE      CODE     ---       #20
      00FF32E1H   LINE      CODE     ---       #21
      00FF32E9H   LINE      CODE     ---       #22
      00FF32ECH   LINE      CODE     ---       #23
      00FF32F4H   LINE      CODE     ---       #24
      00FF32FDH   LINE      CODE     ---       #25
      00FF3300H   LINE      CODE     ---       #26
      00FF331DH   LINE      CODE     ---       #27
      00FF3327H   LINE      CODE     ---       #28
      00FF3333H   LINE      CODE     ---       #29
      00FF3342H   LINE      CODE     ---       #30
      00FF334EH   LINE      CODE     ---       #31
      00FF3350H   LINE      CODE     ---       #32
      00FF3350H   LINE      CODE     ---       #34
      00FF3354H   LINE      CODE     ---       #36
      00FF3356H   LINE      CODE     ---       #37
      00FF335EH   LINE      CODE     ---       #38
      00FF3361H   LINE      CODE     ---       #39
      00FF3370H   LINE      CODE     ---       #40
      00FF3379H   LINE      CODE     ---       #41
      00FF337CH   LINE      CODE     ---       #42
      00FF3399H   LINE      CODE     ---       #43
      00FF33A3H   LINE      CODE     ---       #44
      00FF33AFH   LINE      CODE     ---       #45
      00FF33BEH   LINE      CODE     ---       #46
      00FF33CAH   LINE      CODE     ---       #47
      00FF33CCH   LINE      CODE     ---       #48
      00FF33CCH   LINE      CODE     ---       #50
      00FF33D0H   LINE      CODE     ---       #52
      00FF33D3H   LINE      CODE     ---       #53
      00FF33EEH   LINE      CODE     ---       #54
      00FF33F8H   LINE      CODE     ---       #56
      00FF3404H   LINE      CODE     ---       #57
      00FF3413H   LINE      CODE     ---       #58
      00FF3421H   LINE      CODE     ---       #59
      00FF3423H   LINE      CODE     ---       #60
      00FF3423H   LINE      CODE     ---       #62
      00FF3427H   LINE      CODE     ---       #64
      00FF342AH   LINE      CODE     ---       #65
      00FF3433H   LINE      CODE     ---       #66
      00FF3436H   LINE      CODE     ---       #67
      00FF3453H   LINE      CODE     ---       #68
      00FF345DH   LINE      CODE     ---       #70
      00FF3469H   LINE      CODE     ---       #71
      00FF3478H   LINE      CODE     ---       #72
      00FF3486H   LINE      CODE     ---       #73
      00FF3488H   LINE      CODE     ---       #74
      00FF3488H   LINE      CODE     ---       #76
      00FF348CH   LINE      CODE     ---       #78
      00FF348FH   LINE      CODE     ---       #79
      00FF3498H   LINE      CODE     ---       #80
      00FF349BH   LINE      CODE     ---       #81
      00FF34B8H   LINE      CODE     ---       #82
      00FF34C2H   LINE      CODE     ---       #84
      00FF34CEH   LINE      CODE     ---       #85
      00FF34DDH   LINE      CODE     ---       #86
      00FF34EBH   LINE      CODE     ---       #87
      00FF34EDH   LINE      CODE     ---       #88
      00FF34EDH   LINE      CODE     ---       #90
      00FF34F6H   LINE      CODE     ---       #93
      00FF3506H   LINE      CODE     ---       #94
      00FF350FH   LINE      CODE     ---       #95
L251 LINKER/LOCATER V4.66.93.0                                                        03/28/2026  21:02:40  PAGE 103


      00FF3512H   LINE      CODE     ---       #96
      00FF3548H   LINE      CODE     ---       #97
      00FF355DH   LINE      CODE     ---       #99
      00FF3573H   LINE      CODE     ---       #100
      00FF357EH   LINE      CODE     ---       #101
      00FF3593H   LINE      CODE     ---       #103
      00FF3595H   LINE      CODE     ---       #104
      00FF3595H   LINE      CODE     ---       #105
      00FF3597H   LINE      CODE     ---       #106
      ---         BLOCKEND  ---      ---       LVL=0

      ---         MODULE    ---      ---       AI8051U_UART
      00FF5BB5H   PUBLIC    CODE     ---       UART1_PutBuf
      00010603H   PUBLIC    XDATA    ---       COM1
      00010608H   PUBLIC    XDATA    ---       COM3
      0001060DH   PUBLIC    XDATA    ---       COM4
      00000023H   PUBLIC    EDATA    ---       RX1_Buffer
      000000A3H   PUBLIC    EDATA    ---       RX3_Buffer
      000000E3H   PUBLIC    EDATA    ---       TX1_Buffer
      00000163H   PUBLIC    EDATA    ---       RX4_Buffer
      000001E3H   PUBLIC    EDATA    ---       TX3_Buffer
      00000223H   PUBLIC    EDATA    ---       TX4_Buffer
      0000008EH.3 SFRSYM    DATA     BIT       T2_CT
      00000089H.6 SFRSYM    DATA     BIT       T1_CT
      000000D0H   SFRSYM    DATA     BYTE      PSW
      0000009DH   SFRSYM    DATA     BYTE      IRCBAND
      00000097H   SFRSYM    DATA     BYTE      AUXR2
      0000008EH.0 SFRSYM    DATA     BIT       S1BRT
      000000FDH.4 SFRSYM    DATA     BIT       S4REN
      000000ACH.4 SFRSYM    DATA     BIT       S3REN
      000000EFH   SFRSYM    DATA     BYTE      AUXINTIF
      000000FDH   SFRSYM    DATA     BYTE      S4CON
      000000ACH   SFRSYM    DATA     BYTE      S3CON
      0000009AH   SFRSYM    DATA     BYTE      S2CON
      00000098H.4 SFRSYM    DATA     BIT       REN
      000000FEH   SFRSYM    DATA     BYTE      S4BUF
      000000ADH   SFRSYM    DATA     BYTE      S3BUF
      000000DDH.5 SFRSYM    DATA     BIT       T4x12
      000000DDH.1 SFRSYM    DATA     BIT       T3x12
      000000FDH.6 SFRSYM    DATA     BIT       S4ST4
      0000008EH.2 SFRSYM    DATA     BIT       T2x12
      0000008EH.6 SFRSYM    DATA     BIT       T1x12
      000000ACH.6 SFRSYM    DATA     BIT       S3ST3
      000000B7H   SFRSYM    DATA     BYTE      IPH
      000000CDH   SFRSYM    DATA     BYTE      SPSTAT
      000000DDH   SFRSYM    DATA     BYTE      T4T3M
      000000DDH.7 SFRSYM    DATA     BIT       T4R
      000000DDH.3 SFRSYM    DATA     BIT       T3R
      0000008EH.4 SFRSYM    DATA     BIT       T2R
      000000C1H   SFRSYM    DATA     BYTE      WDT_CONTR
      000000FDH.7 SFRSYM    DATA     BIT       S4SM0
      00000088H.6 SFRSYM    DATA     BIT       TR1
      000000ACH.7 SFRSYM    DATA     BIT       S3SM0
      000000D3H   SFRSYM    DATA     BYTE      T4L
      000000D5H   SFRSYM    DATA     BYTE      T3L
      000000D7H   SFRSYM    DATA     BYTE      T2L
      0000008BH   SFRSYM    DATA     BYTE      TL1
      000000D2H   SFRSYM    DATA     BYTE      T4H
      000000D4H   SFRSYM    DATA     BYTE      T3H
      000000D6H   SFRSYM    DATA     BYTE      T2H
      0000008DH   SFRSYM    DATA     BYTE      TH1
      000000DFH   SFRSYM    DATA     BYTE      IP3
      000000F4H   SFRSYM    DATA     BYTE      USBCON
      000000B5H   SFRSYM    DATA     BYTE      IP2
      000000FFH   SFRSYM    DATA     BYTE      RSTCFG
L251 LINKER/LOCATER V4.66.93.0                                                        03/28/2026  21:02:40  PAGE 104


      000000C7H   SFRSYM    DATA     BYTE      IAP_CONTR
      000000F9H   SFRSYM    DATA     BYTE      LINICR
      0000008EH   SFRSYM    DATA     BYTE      AUXR
      000000AFH   SFRSYM    DATA     BYTE      IE2
      00000088H   SFRSYM    DATA     BYTE      TCON
      00000089H   SFRSYM    DATA     BYTE      TMOD
      00000087H.7 SFRSYM    DATA     BIT       SMOD
      00000098H   SFRSYM    DATA     BYTE      SCON
      000000F1H   SFRSYM    DATA     BYTE      CANICR
      00000087H   SFRSYM    DATA     BYTE      PCON
      0000008EH.5 SFRSYM    DATA     BIT       S1M0x6
      00000099H   SFRSYM    DATA     BYTE      SBUF
      000000BCH   SFRSYM    DATA     BYTE      ADC_CONTR
      000000D1H   SFRSYM    DATA     BYTE      PSW1
      000000E7H   SFRSYM    DATA     BYTE      CMPCR2
      000000E6H   SFRSYM    DATA     BYTE      CMPCR1
      000000DEH   SFRSYM    DATA     BYTE      ADCCFG
      000000B8H   SFRSYM    DATA     BYTE      IP
      0000008FH   SFRSYM    DATA     BYTE      INTCLKO
      000000EEH   SFRSYM    DATA     BYTE      IP3H
      000000B6H   SFRSYM    DATA     BYTE      IP2H
      000000BFH   SFRSYM    DATA     BYTE      P_SW4
      000000A8H   SFRSYM    DATA     BYTE      IE
      000000BBH   SFRSYM    DATA     BYTE      P_SW3
      000000BAH   SFRSYM    DATA     BYTE      P_SW2
      000000A2H   SFRSYM    DATA     BYTE      P_SW1
      000000CEH   SFRSYM    DATA     BYTE      SPCTL
      000000F8H   SFRSYM    DATA     BYTE      P7
      000000E8H   SFRSYM    DATA     BYTE      P6
      000000C8H   SFRSYM    DATA     BYTE      P5
      000000C0H   SFRSYM    DATA     BYTE      P4
      000000ABH   SFRSYM    DATA     BYTE      WKTCH
      000000B0H   SFRSYM    DATA     BYTE      P3
      000000A0H   SFRSYM    DATA     BYTE      P2
      00000090H   SFRSYM    DATA     BYTE      P1
      00000080H   SFRSYM    DATA     BYTE      P0
      000000DDH.6 SFRSYM    DATA     BIT       T4_CT
      000000DDH.2 SFRSYM    DATA     BIT       T3_CT
      R10         REGSYM    ---      BYTE      UARTx
      REG=7       REGSYM    ---      ---       COMx
      WR26        REGSYM    ---      WORD      i
      DR20        REGSYM    ---      DWORD     j

      00FF5BB5H   BLOCK     CODE     ---       LVL=0
      R11         REGSYM    ---      BYTE      dat
      00FF5BB5H   LINE      CODE     ---       #232
      00FF5BB5H   LINE      CODE     ---       #245
      00FF5BB8H   LINE      CODE     ---       #246
      00FF5BBEH   LINE      CODE     ---       #247
      00FF5BC4H   LINE      CODE     ---       #249
      ---         BLOCKEND  ---      ---       LVL=0
      REG=3       REGSYM    ---      ---       puts
      R11         REGSYM    ---      BYTE      dat
      REG=3       REGSYM    ---      ---       puts
      R11         REGSYM    ---      BYTE      dat
      REG=3       REGSYM    ---      ---       puts
      R15         REGSYM    ---      BYTE      c

      ---         MODULE    ---      ---       AI8051U_WDT
      000000D0H   SFRSYM    DATA     BYTE      PSW
      0000009DH   SFRSYM    DATA     BYTE      IRCBAND
      00000097H   SFRSYM    DATA     BYTE      AUXR2
      000000EFH   SFRSYM    DATA     BYTE      AUXINTIF
      000000FDH   SFRSYM    DATA     BYTE      S4CON
      000000ACH   SFRSYM    DATA     BYTE      S3CON
L251 LINKER/LOCATER V4.66.93.0                                                        03/28/2026  21:02:40  PAGE 105


      0000009AH   SFRSYM    DATA     BYTE      S2CON
      000000C1H.5 SFRSYM    DATA     BIT       EN_WDT
      000000B7H   SFRSYM    DATA     BYTE      IPH
      000000CDH   SFRSYM    DATA     BYTE      SPSTAT
      000000DDH   SFRSYM    DATA     BYTE      T4T3M
      000000C1H   SFRSYM    DATA     BYTE      WDT_CONTR
      000000DFH   SFRSYM    DATA     BYTE      IP3
      000000F4H   SFRSYM    DATA     BYTE      USBCON
      000000B5H   SFRSYM    DATA     BYTE      IP2
      000000FFH   SFRSYM    DATA     BYTE      RSTCFG
      000000C7H   SFRSYM    DATA     BYTE      IAP_CONTR
      000000F9H   SFRSYM    DATA     BYTE      LINICR
      0000008EH   SFRSYM    DATA     BYTE      AUXR
      000000AFH   SFRSYM    DATA     BYTE      IE2
      00000088H   SFRSYM    DATA     BYTE      TCON
      00000089H   SFRSYM    DATA     BYTE      TMOD
      00000098H   SFRSYM    DATA     BYTE      SCON
      000000C1H.4 SFRSYM    DATA     BIT       CLR_WDT
      000000F1H   SFRSYM    DATA     BYTE      CANICR
      00000087H   SFRSYM    DATA     BYTE      PCON
      000000BCH   SFRSYM    DATA     BYTE      ADC_CONTR
      000000D1H   SFRSYM    DATA     BYTE      PSW1
      000000C1H.3 SFRSYM    DATA     BIT       IDL_WDT
      000000E7H   SFRSYM    DATA     BYTE      CMPCR2
      000000E6H   SFRSYM    DATA     BYTE      CMPCR1
      000000DEH   SFRSYM    DATA     BYTE      ADCCFG
      000000B8H   SFRSYM    DATA     BYTE      IP
      0000008FH   SFRSYM    DATA     BYTE      INTCLKO
      000000EEH   SFRSYM    DATA     BYTE      IP3H
      000000B6H   SFRSYM    DATA     BYTE      IP2H
      000000BFH   SFRSYM    DATA     BYTE      P_SW4
      000000A8H   SFRSYM    DATA     BYTE      IE
      000000BBH   SFRSYM    DATA     BYTE      P_SW3
      000000BAH   SFRSYM    DATA     BYTE      P_SW2
      000000A2H   SFRSYM    DATA     BYTE      P_SW1
      000000CEH   SFRSYM    DATA     BYTE      SPCTL
      000000F8H   SFRSYM    DATA     BYTE      P7
      000000E8H   SFRSYM    DATA     BYTE      P6
      000000C8H   SFRSYM    DATA     BYTE      P5
      000000C0H   SFRSYM    DATA     BYTE      P4
      000000ABH   SFRSYM    DATA     BYTE      WKTCH
      000000B0H   SFRSYM    DATA     BYTE      P3
      000000A0H   SFRSYM    DATA     BYTE      P2
      00000090H   SFRSYM    DATA     BYTE      P1
      00000080H   SFRSYM    DATA     BYTE      P0
      REG=0       REGSYM    ---      ---       WDT

      ---         MODULE    ---      ---       ?C?DPADD
      00FF0225H   PUBLIC    CODE     ---       ?C?DPADD
      00FF0221H   PUBLIC    CODE     ---       ?C?DPSUB

      ---         MODULE    ---      ---       ?C?DPMUL
      00FF0334H   PUBLIC    CODE     ---       ?C?DPMUL

      ---         MODULE    ---      ---       ?C?DPDIV
      00FF0444H   PUBLIC    CODE     ---       ?C?DPDIV

      ---         MODULE    ---      ---       ?C?DPCMP
      00FF04E5H   PUBLIC    CODE     ---       ?C?DPCMP
      00FF04E3H   PUBLIC    CODE     ---       ?C?DPCMP3

      ---         MODULE    ---      ---       ?C?DPNEG
      00FF0544H   PUBLIC    CODE     ---       ?C?DPNEG

      ---         MODULE    ---      ---       ?C?DCAST
L251 LINKER/LOCATER V4.66.93.0                                                        03/28/2026  21:02:40  PAGE 106


      00FF055CH   PUBLIC    CODE     NEAR LAB  ?C?DCASTC
      00FF0557H   PUBLIC    CODE     NEAR LAB  ?C?DCASTI
      00FF0552H   PUBLIC    CODE     NEAR LAB  ?C?DCASTL

      ---         MODULE    ---      ---       ?C?CASTD
      00FF059FH   PUBLIC    CODE     NEAR LAB  ?C?CASTD

      ---         MODULE    ---      ---       ?C?DCASTF
      00FF05FFH   PUBLIC    CODE     NEAR LAB  ?C?DCASTF

      ---         MODULE    ---      ---       ?C?FCASTD
      00FF0641H   PUBLIC    CODE     NEAR LAB  ?C?FCASTD

      ---         MODULE    ---      ---       PRINTF
      00FF0678H   PUBLIC    CODE     NEAR LAB  PRINTF

      ---         MODULE    ---      ---       SPRINTF
      0001056FH   PUBLIC    XDATA    ---       ?SPRINTF?BYTE
      00FF06A4H   PUBLIC    CODE     NEAR LAB  SPRINTF

      ---         MODULE    ---      ---       SSCANF
      00FF06C4H   PUBLIC    CODE     NEAR LAB  SSCANF

      ---         MODULE    ---      ---       FABS
      00FF06E6H   PUBLIC    CODE     NEAR LAB  FABS?_

      ---         MODULE    ---      ---       EXP?_
      00FF0787H   PUBLIC    CODE     ---       EXP?_

      ---         MODULE    ---      ---       ?C?DPGETOPN
      00FF080AH   PUBLIC    CODE     ---       ?C?DPGETOPN2
      00FF0855H   PUBLIC    CODE     ---       ?C?DPNANRESULT
      00FF0861H   PUBLIC    CODE     ---       ?C?DPOVERFLOW
      00FF082DH   PUBLIC    CODE     ---       ?C?DPRESULT
      00FF0846H   PUBLIC    CODE     ---       ?C?DPRESULT2
      00FF085CH   PUBLIC    CODE     ---       ?C?DPUNDERFLOW

      ---         MODULE    ---      ---       ?C?PRNFMT
      00FF089CH   PUBLIC    CODE     ---       ?C?PRNFMT

      ---         MODULE    ---      ---       ?C?SCANFP
      00FF0D06H   PUBLIC    CODE     NEAR LAB  ?C?SCANFP

      ---         MODULE    ---      ---       ?C?DPSERIES
      00FF1024H   PUBLIC    CODE     ---       ?C?DP2SERIES
      00FF102FH   PUBLIC    CODE     ---       ?C?DPSERIES

      ---         MODULE    ---      ---       ?C?DPCONVERT
      00FF1087H   PUBLIC    CODE     ---       ?C?DPCONVERT
      00FF11AEH   PUBLIC    CODE     ---       ?C?DPROUND

      ---         MODULE    ---      ---       ?C?DPATOF
      00FF11F1H   PUBLIC    CODE     NEAR LAB  ?C?DPATOF

      ---         MODULE    ---      ---       ?C?DTNPWR
      00FF1358H   PUBLIC    CODE     ---       ?C?DTNPWR

      ---         MODULE    ---      ---       ?C?FPGETOPN
      00FF13DEH   PUBLIC    CODE     ---       ?C?FPGETOPN2
      00FF141BH   PUBLIC    CODE     ---       ?C?FPNANRESULT
      00FF1423H   PUBLIC    CODE     ---       ?C?FPOVERFLOW
      00FF13F7H   PUBLIC    CODE     ---       ?C?FPRESULT
      00FF140DH   PUBLIC    CODE     ---       ?C?FPRESULT2
      00FF1420H   PUBLIC    CODE     ---       ?C?FPUNDERFLOW

L251 LINKER/LOCATER V4.66.93.0                                                        03/28/2026  21:02:40  PAGE 107


      ---         MODULE    ---      ---       ?C?FPADD
      00FF1435H   PUBLIC    CODE     ---       ?C?FPADD
      00FF1432H   PUBLIC    CODE     ---       ?C?FPSUB

      ---         MODULE    ---      ---       ?C?FPMUL
      00FF14EDH   PUBLIC    CODE     ---       ?C?FPMUL

      ---         MODULE    ---      ---       ?C?FPDIV
      00FF158DH   PUBLIC    CODE     ---       ?C?FPDIV

      ---         MODULE    ---      ---       ?C?FPCMP
      00FF1610H   PUBLIC    CODE     ---       ?C?FPCMP
      00FF160EH   PUBLIC    CODE     ---       ?C?FPCMP3

      ---         MODULE    ---      ---       ?C?CASTF
      00FF1654H   PUBLIC    CODE     NEAR LAB  ?C?CASTF

      ---         MODULE    ---      ---       ?C?ATOF
      00FF1691H   PUBLIC    CODE     NEAR LAB  ?C?FPATOF

      ---         MODULE    ---      ---       ?C?FPNEG
      00FF174DH   PUBLIC    CODE     ---       ?C?FPNEG

      ---         MODULE    ---      ---       ?C?FCAST
      00FF1765H   PUBLIC    CODE     NEAR LAB  ?C?FCASTC
      00FF1760H   PUBLIC    CODE     NEAR LAB  ?C?FCASTI
      00FF175BH   PUBLIC    CODE     NEAR LAB  ?C?FCASTL

      ---         MODULE    ---      ---       ?C?FTNPWR
      00FF17C8H   PUBLIC    CODE     ---       ?C?FTNPWR

      ---         MODULE    ---      ---       ?C_START
      00FF0000H   PUBLIC    CODE     ---       ?C?STARTUP
      00FF0000H   PUBLIC    CODE     ---       ?C_STARTUP

      ---         MODULE    ---      ---       ?C?INITHDATA
      00FF5468H   PUBLIC    CODE     ---       ?C?INITHDATA

      ---         MODULE    ---      ---       ?C?SIDIV
      00FF17FFH   PUBLIC    CODE     ---       ?C?SIDIV

      ---         MODULE    ---      ---       ?C?LIMUL
      00FF1831H   PUBLIC    CODE     ---       ?C?LIMUL

      ---         MODULE    ---      ---       ?C?ULDIV
      00FF183CH   PUBLIC    CODE     NEAR LAB  ?C?ULDIV
      00FF183AH   PUBLIC    CODE     NEAR LAB  ?C?ULIDIV

      ---         MODULE    ---      ---       ?C?SLDIV
      00FF188DH   PUBLIC    CODE     NEAR LAB  ?C?SLDIV

      ---         MODULE    ---      ---       ?C?BMOVEPP
      00FF18C3H   PUBLIC    CODE     ---       ?C?BMOVEPP
      00FF18C1H   PUBLIC    CODE     ---       ?C?BMOVEPP8

      ---         MODULE    ---      ---       ISDIGIT

      ---         MODULE    ---      ---       ISSPACE

      ---         MODULE    ---      ---       STRCPY?_
      00FF5BA2H   PUBLIC    CODE     NEAR LAB  STRCPY?_

      ---         MODULE    ---      ---       STRLEN

      ---         MODULE    ---      ---       STRCHR
L251 LINKER/LOCATER V4.66.93.0                                                        03/28/2026  21:02:40  PAGE 108



      ---         MODULE    ---      ---       STRSTR

      ---         MODULE    ---      ---       memcpy

      ---         MODULE    ---      ---       ?C?INITHDATA_END
      00FF6C0BH   PUBLIC    HCONST   WORD      ?C?INITHDATA_END



*** WARNING L15: MULTIPLE CALL TO FUNCTION
    NAME:    LQ_SPI_Read/LQ_Soft_SPI
    CALLER1: Timer1_ISR_Handler/AI8051U_Timer_Isr
    CALLER2: ?C_C51STARTUP?3

Program Size: data=10.7 edata+hdata=1024 xdata=1565 const=5386 code=23402
L251 RUN COMPLETE.  1 WARNING(S),  0 ERROR(S)
